
soma1.mips:     file format elf32-bigmips


Disassembly of section .text:

00000100 <_start>:
     100:	3c1c0002 	lui	gp,0x2
     104:	279ce9d0 	addiu	gp,gp,-5680
     108:	0c000049 	jal	124 <main>
     10c:	00000000 	nop
     110:	00000000 	nop
     114:	00022020 	add	a0,zero,v0
     118:	0c004897 	jal	1225c <_exit>
     11c:	00000000 	nop
     120:	00000000 	nop

00000124 <main>:
     124:	27bdffe0 	addiu	sp,sp,-32
     128:	afbf001c 	sw	ra,28(sp)
     12c:	afbe0018 	sw	s8,24(sp)
     130:	03a0f021 	move	s8,sp
     134:	24020005 	li	v0,5
     138:	afc20010 	sw	v0,16(s8)
     13c:	24020006 	li	v0,6
     140:	afc20014 	sw	v0,20(s8)
     144:	8fc30010 	lw	v1,16(s8)
     148:	8fc20014 	lw	v0,20(s8)
     14c:	00000000 	nop
     150:	00621021 	addu	v0,v1,v0
     154:	3c030001 	lui	v1,0x1
     158:	24644a88 	addiu	a0,v1,19080
     15c:	00402821 	move	a1,v0
     160:	0c00007d 	jal	1f4 <printf>
     164:	00000000 	nop
     168:	00001021 	move	v0,zero
     16c:	03c0e821 	move	sp,s8
     170:	8fbf001c 	lw	ra,28(sp)
     174:	8fbe0018 	lw	s8,24(sp)
     178:	27bd0020 	addiu	sp,sp,32
     17c:	03e00008 	jr	ra
     180:	00000000 	nop

00000184 <_printf_r>:
     184:	27bdffe0 	addiu	sp,sp,-32
     188:	afbf001c 	sw	ra,28(sp)
     18c:	afbe0018 	sw	s8,24(sp)
     190:	03a0f021 	move	s8,sp
     194:	afc40020 	sw	a0,32(s8)
     198:	afc60028 	sw	a2,40(s8)
     19c:	afc7002c 	sw	a3,44(s8)
     1a0:	afc50024 	sw	a1,36(s8)
     1a4:	27c20028 	addiu	v0,s8,40
     1a8:	afc20014 	sw	v0,20(s8)
     1ac:	8fc20020 	lw	v0,32(s8)
     1b0:	00000000 	nop
     1b4:	8c430008 	lw	v1,8(v0)
     1b8:	8fc20014 	lw	v0,20(s8)
     1bc:	8fc40020 	lw	a0,32(s8)
     1c0:	00602821 	move	a1,v1
     1c4:	8fc60024 	lw	a2,36(s8)
     1c8:	00403821 	move	a3,v0
     1cc:	0c000102 	jal	408 <_vfprintf_r>
     1d0:	00000000 	nop
     1d4:	afc20010 	sw	v0,16(s8)
     1d8:	8fc20010 	lw	v0,16(s8)
     1dc:	03c0e821 	move	sp,s8
     1e0:	8fbf001c 	lw	ra,28(sp)
     1e4:	8fbe0018 	lw	s8,24(sp)
     1e8:	27bd0020 	addiu	sp,sp,32
     1ec:	03e00008 	jr	ra
     1f0:	00000000 	nop

000001f4 <printf>:
     1f4:	27bdffd8 	addiu	sp,sp,-40
     1f8:	afbf0024 	sw	ra,36(sp)
     1fc:	afbe0020 	sw	s8,32(sp)
     200:	03a0f021 	move	s8,sp
     204:	afc5002c 	sw	a1,44(s8)
     208:	afc60030 	sw	a2,48(s8)
     20c:	afc70034 	sw	a3,52(s8)
     210:	afc40028 	sw	a0,40(s8)
     214:	8f828070 	lw	v0,-32656(gp)
     218:	00000000 	nop
     21c:	afc20010 	sw	v0,16(s8)
     220:	27c2002c 	addiu	v0,s8,44
     224:	afc20018 	sw	v0,24(s8)
     228:	8fc20010 	lw	v0,16(s8)
     22c:	00000000 	nop
     230:	8c430008 	lw	v1,8(v0)
     234:	8fc20018 	lw	v0,24(s8)
     238:	8fc40010 	lw	a0,16(s8)
     23c:	00602821 	move	a1,v1
     240:	8fc60028 	lw	a2,40(s8)
     244:	00403821 	move	a3,v0
     248:	0c000102 	jal	408 <_vfprintf_r>
     24c:	00000000 	nop
     250:	afc20014 	sw	v0,20(s8)
     254:	8fc20014 	lw	v0,20(s8)
     258:	03c0e821 	move	sp,s8
     25c:	8fbf0024 	lw	ra,36(sp)
     260:	8fbe0020 	lw	s8,32(sp)
     264:	27bd0028 	addiu	sp,sp,40
     268:	03e00008 	jr	ra
     26c:	00000000 	nop

00000270 <__sbprintf>:
     270:	27bdfb70 	addiu	sp,sp,-1168
     274:	afbf048c 	sw	ra,1164(sp)
     278:	afbe0488 	sw	s8,1160(sp)
     27c:	afb00484 	sw	s0,1156(sp)
     280:	03a0f021 	move	s8,sp
     284:	afc40490 	sw	a0,1168(s8)
     288:	00a08021 	move	s0,a1
     28c:	afc60498 	sw	a2,1176(s8)
     290:	afc7049c 	sw	a3,1180(s8)
     294:	8603000c 	lh	v1,12(s0)
     298:	2402fffd 	li	v0,-3
     29c:	00621024 	and	v0,v1,v0
     2a0:	00021400 	sll	v0,v0,0x10
     2a4:	00021403 	sra	v0,v0,0x10
     2a8:	a7c20020 	sh	v0,32(s8)
     2ac:	8e020064 	lw	v0,100(s0)
     2b0:	00000000 	nop
     2b4:	afc20078 	sw	v0,120(s8)
     2b8:	8602000e 	lh	v0,14(s0)
     2bc:	00000000 	nop
     2c0:	a7c20022 	sh	v0,34(s8)
     2c4:	8e02001c 	lw	v0,28(s0)
     2c8:	00000000 	nop
     2cc:	afc20030 	sw	v0,48(s8)
     2d0:	8e020024 	lw	v0,36(s0)
     2d4:	00000000 	nop
     2d8:	afc20038 	sw	v0,56(s8)
     2dc:	27c2007c 	addiu	v0,s8,124
     2e0:	afc20014 	sw	v0,20(s8)
     2e4:	8fc20014 	lw	v0,20(s8)
     2e8:	00000000 	nop
     2ec:	afc20024 	sw	v0,36(s8)
     2f0:	24020400 	li	v0,1024
     2f4:	afc2001c 	sw	v0,28(s8)
     2f8:	8fc2001c 	lw	v0,28(s8)
     2fc:	00000000 	nop
     300:	afc20028 	sw	v0,40(s8)
     304:	afc0002c 	sw	zero,44(s8)
     308:	27c20014 	addiu	v0,s8,20
     30c:	8fc40490 	lw	a0,1168(s8)
     310:	00402821 	move	a1,v0
     314:	8fc60498 	lw	a2,1176(s8)
     318:	8fc7049c 	lw	a3,1180(s8)
     31c:	0c000102 	jal	408 <_vfprintf_r>
     320:	00000000 	nop
     324:	afc20010 	sw	v0,16(s8)
     328:	8fc20010 	lw	v0,16(s8)
     32c:	00000000 	nop
     330:	0440000a 	bltz	v0,35c <__sbprintf+0xec>
     334:	00000000 	nop
     338:	27c20014 	addiu	v0,s8,20
     33c:	8fc40490 	lw	a0,1168(s8)
     340:	00402821 	move	a1,v0
     344:	0c001b33 	jal	6ccc <_fflush_r>
     348:	00000000 	nop
     34c:	10400003 	beqz	v0,35c <__sbprintf+0xec>
     350:	00000000 	nop
     354:	2402ffff 	li	v0,-1
     358:	afc20010 	sw	v0,16(s8)
     35c:	87c20020 	lh	v0,32(s8)
     360:	00000000 	nop
     364:	3042ffff 	andi	v0,v0,0xffff
     368:	30420040 	andi	v0,v0,0x40
     36c:	10400007 	beqz	v0,38c <__sbprintf+0x11c>
     370:	00000000 	nop
     374:	8602000c 	lh	v0,12(s0)
     378:	00000000 	nop
     37c:	34420040 	ori	v0,v0,0x40
     380:	00021400 	sll	v0,v0,0x10
     384:	00021403 	sra	v0,v0,0x10
     388:	a602000c 	sh	v0,12(s0)
     38c:	8fc20010 	lw	v0,16(s8)
     390:	03c0e821 	move	sp,s8
     394:	8fbf048c 	lw	ra,1164(sp)
     398:	8fbe0488 	lw	s8,1160(sp)
     39c:	8fb00484 	lw	s0,1156(sp)
     3a0:	27bd0490 	addiu	sp,sp,1168
     3a4:	03e00008 	jr	ra
     3a8:	00000000 	nop

000003ac <vfprintf>:
     3ac:	27bdffe0 	addiu	sp,sp,-32
     3b0:	afbf001c 	sw	ra,28(sp)
     3b4:	afbe0018 	sw	s8,24(sp)
     3b8:	03a0f021 	move	s8,sp
     3bc:	afc40020 	sw	a0,32(s8)
     3c0:	afc50024 	sw	a1,36(s8)
     3c4:	afc60028 	sw	a2,40(s8)
     3c8:	8f828070 	lw	v0,-32656(gp)
     3cc:	00000000 	nop
     3d0:	00402021 	move	a0,v0
     3d4:	8fc50020 	lw	a1,32(s8)
     3d8:	8fc60024 	lw	a2,36(s8)
     3dc:	8fc70028 	lw	a3,40(s8)
     3e0:	0c000102 	jal	408 <_vfprintf_r>
     3e4:	00000000 	nop
     3e8:	afc20010 	sw	v0,16(s8)
     3ec:	8fc20010 	lw	v0,16(s8)
     3f0:	03c0e821 	move	sp,s8
     3f4:	8fbf001c 	lw	ra,28(sp)
     3f8:	8fbe0018 	lw	s8,24(sp)
     3fc:	27bd0020 	addiu	sp,sp,32
     400:	03e00008 	jr	ra
     404:	00000000 	nop

00000408 <_vfprintf_r>:
     408:	27bdfe08 	addiu	sp,sp,-504
     40c:	afbf01f4 	sw	ra,500(sp)
     410:	afbe01f0 	sw	s8,496(sp)
     414:	afb701ec 	sw	s7,492(sp)
     418:	afb601e8 	sw	s6,488(sp)
     41c:	afb501e4 	sw	s5,484(sp)
     420:	afb401e0 	sw	s4,480(sp)
     424:	afb301dc 	sw	s3,476(sp)
     428:	afb201d8 	sw	s2,472(sp)
     42c:	afb101d4 	sw	s1,468(sp)
     430:	afb001d0 	sw	s0,464(sp)
     434:	03a0f021 	move	s8,sp
     438:	afc401f8 	sw	a0,504(s8)
     43c:	afc501fc 	sw	a1,508(s8)
     440:	afc60200 	sw	a2,512(s8)
     444:	afc70204 	sw	a3,516(s8)
     448:	8fc401f8 	lw	a0,504(s8)
     44c:	0c002096 	jal	8258 <_localeconv_r>
     450:	00000000 	nop
     454:	8c420000 	lw	v0,0(v0)
     458:	00000000 	nop
     45c:	afc20084 	sw	v0,132(s8)
     460:	8fc40084 	lw	a0,132(s8)
     464:	0c0033af 	jal	cebc <strlen>
     468:	00000000 	nop
     46c:	afc20088 	sw	v0,136(s8)
     470:	00001821 	move	v1,zero
     474:	00001021 	move	v0,zero
     478:	afc300a4 	sw	v1,164(s8)
     47c:	afc200a0 	sw	v0,160(s8)
     480:	afc00048 	sw	zero,72(s8)
     484:	afc000b4 	sw	zero,180(s8)
     488:	afc00070 	sw	zero,112(s8)
     48c:	afc00074 	sw	zero,116(s8)
     490:	8fc201f8 	lw	v0,504(s8)
     494:	00000000 	nop
     498:	1040000a 	beqz	v0,4c4 <_vfprintf_r+0xbc>
     49c:	00000000 	nop
     4a0:	8fc201f8 	lw	v0,504(s8)
     4a4:	00000000 	nop
     4a8:	8c420038 	lw	v0,56(v0)
     4ac:	00000000 	nop
     4b0:	14400004 	bnez	v0,4c4 <_vfprintf_r+0xbc>
     4b4:	00000000 	nop
     4b8:	8fc401f8 	lw	a0,504(s8)
     4bc:	0c001cb5 	jal	72d4 <__sinit>
     4c0:	00000000 	nop
     4c4:	8fc201fc 	lw	v0,508(s8)
     4c8:	00000000 	nop
     4cc:	8442000c 	lh	v0,12(v0)
     4d0:	00000000 	nop
     4d4:	3042ffff 	andi	v0,v0,0xffff
     4d8:	30422000 	andi	v0,v0,0x2000
     4dc:	14400013 	bnez	v0,52c <_vfprintf_r+0x124>
     4e0:	00000000 	nop
     4e4:	8fc201fc 	lw	v0,508(s8)
     4e8:	00000000 	nop
     4ec:	8442000c 	lh	v0,12(v0)
     4f0:	00000000 	nop
     4f4:	34422000 	ori	v0,v0,0x2000
     4f8:	00021c00 	sll	v1,v0,0x10
     4fc:	00031c03 	sra	v1,v1,0x10
     500:	8fc201fc 	lw	v0,508(s8)
     504:	00000000 	nop
     508:	a443000c 	sh	v1,12(v0)
     50c:	8fc201fc 	lw	v0,508(s8)
     510:	00000000 	nop
     514:	8c430064 	lw	v1,100(v0)
     518:	2402dfff 	li	v0,-8193
     51c:	00621824 	and	v1,v1,v0
     520:	8fc201fc 	lw	v0,508(s8)
     524:	00000000 	nop
     528:	ac430064 	sw	v1,100(v0)
     52c:	8fc201fc 	lw	v0,508(s8)
     530:	00000000 	nop
     534:	8442000c 	lh	v0,12(v0)
     538:	00000000 	nop
     53c:	3042ffff 	andi	v0,v0,0xffff
     540:	30420008 	andi	v0,v0,0x8
     544:	10400007 	beqz	v0,564 <_vfprintf_r+0x15c>
     548:	00000000 	nop
     54c:	8fc201fc 	lw	v0,508(s8)
     550:	00000000 	nop
     554:	8c420010 	lw	v0,16(v0)
     558:	00000000 	nop
     55c:	1440000a 	bnez	v0,588 <_vfprintf_r+0x180>
     560:	00000000 	nop
     564:	8fc401f8 	lw	a0,504(s8)
     568:	8fc501fc 	lw	a1,508(s8)
     56c:	0c000fbe 	jal	3ef8 <__swsetup_r>
     570:	00000000 	nop
     574:	10400004 	beqz	v0,588 <_vfprintf_r+0x180>
     578:	00000000 	nop
     57c:	2402ffff 	li	v0,-1
     580:	08000db4 	j	36d0 <_vfprintf_r+0x32c8>
     584:	00000000 	nop
     588:	8fc201fc 	lw	v0,508(s8)
     58c:	00000000 	nop
     590:	8442000c 	lh	v0,12(v0)
     594:	00000000 	nop
     598:	3042ffff 	andi	v0,v0,0xffff
     59c:	3043001a 	andi	v1,v0,0x1a
     5a0:	2402000a 	li	v0,10
     5a4:	1462000f 	bne	v1,v0,5e4 <_vfprintf_r+0x1dc>
     5a8:	00000000 	nop
     5ac:	8fc201fc 	lw	v0,508(s8)
     5b0:	00000000 	nop
     5b4:	8442000e 	lh	v0,14(v0)
     5b8:	00000000 	nop
     5bc:	04400009 	bltz	v0,5e4 <_vfprintf_r+0x1dc>
     5c0:	00000000 	nop
     5c4:	8fc401f8 	lw	a0,504(s8)
     5c8:	8fc501fc 	lw	a1,508(s8)
     5cc:	8fc60200 	lw	a2,512(s8)
     5d0:	8fc70204 	lw	a3,516(s8)
     5d4:	0c00009c 	jal	270 <__sbprintf>
     5d8:	00000000 	nop
     5dc:	08000db4 	j	36d0 <_vfprintf_r+0x32c8>
     5e0:	00000000 	nop
     5e4:	8fd50200 	lw	s5,512(s8)
     5e8:	27d100c4 	addiu	s1,s8,196
     5ec:	afd100b8 	sw	s1,184(s8)
     5f0:	afc000c0 	sw	zero,192(s8)
     5f4:	afc000bc 	sw	zero,188(s8)
     5f8:	afc00030 	sw	zero,48(s8)
     5fc:	02a09021 	move	s2,s5
     600:	08000183 	j	60c <_vfprintf_r+0x204>
     604:	00000000 	nop
     608:	26b50001 	addiu	s5,s5,1
     60c:	82a20000 	lb	v0,0(s5)
     610:	00000000 	nop
     614:	10400005 	beqz	v0,62c <_vfprintf_r+0x224>
     618:	00000000 	nop
     61c:	82a30000 	lb	v1,0(s5)
     620:	24020025 	li	v0,37
     624:	1462fff8 	bne	v1,v0,608 <_vfprintf_r+0x200>
     628:	00000000 	nop
     62c:	02a01821 	move	v1,s5
     630:	02401021 	move	v0,s2
     634:	00628023 	subu	s0,v1,v0
     638:	12000021 	beqz	s0,6c0 <_vfprintf_r+0x2b8>
     63c:	00000000 	nop
     640:	ae320000 	sw	s2,0(s1)
     644:	02001021 	move	v0,s0
     648:	ae220004 	sw	v0,4(s1)
     64c:	8fc200c0 	lw	v0,192(s8)
     650:	00000000 	nop
     654:	00501021 	addu	v0,v0,s0
     658:	afc200c0 	sw	v0,192(s8)
     65c:	26310008 	addiu	s1,s1,8
     660:	8fc200bc 	lw	v0,188(s8)
     664:	00000000 	nop
     668:	24420001 	addiu	v0,v0,1
     66c:	afc200bc 	sw	v0,188(s8)
     670:	8fc200bc 	lw	v0,188(s8)
     674:	00000000 	nop
     678:	28420008 	slti	v0,v0,8
     67c:	1440000c 	bnez	v0,6b0 <_vfprintf_r+0x2a8>
     680:	00000000 	nop
     684:	27c200b8 	addiu	v0,s8,184
     688:	8fc401f8 	lw	a0,504(s8)
     68c:	8fc501fc 	lw	a1,508(s8)
     690:	00403021 	move	a2,v0
     694:	0c00352b 	jal	d4ac <__sprint_r>
     698:	00000000 	nop
     69c:	10400003 	beqz	v0,6ac <_vfprintf_r+0x2a4>
     6a0:	00000000 	nop
     6a4:	08000da0 	j	3680 <_vfprintf_r+0x3278>
     6a8:	00000000 	nop
     6ac:	27d100c4 	addiu	s1,s8,196
     6b0:	8fc20030 	lw	v0,48(s8)
     6b4:	00000000 	nop
     6b8:	00501021 	addu	v0,v0,s0
     6bc:	afc20030 	sw	v0,48(s8)
     6c0:	82a20000 	lb	v0,0(s5)
     6c4:	00000000 	nop
     6c8:	14400003 	bnez	v0,6d8 <_vfprintf_r+0x2d0>
     6cc:	00000000 	nop
     6d0:	08000d90 	j	3640 <_vfprintf_r+0x3238>
     6d4:	00000000 	nop
     6d8:	afd5008c 	sw	s5,140(s8)
     6dc:	26b50001 	addiu	s5,s5,1
     6e0:	00009821 	move	s3,zero
     6e4:	afc00064 	sw	zero,100(s8)
     6e8:	afc00034 	sw	zero,52(s8)
     6ec:	2402ffff 	li	v0,-1
     6f0:	afc20038 	sw	v0,56(s8)
     6f4:	a3c00098 	sb	zero,152(s8)
     6f8:	afc0004c 	sw	zero,76(s8)
     6fc:	afc00054 	sw	zero,84(s8)
     700:	8fc20054 	lw	v0,84(s8)
     704:	00000000 	nop
     708:	afc20050 	sw	v0,80(s8)
     70c:	080001c6 	j	718 <_vfprintf_r+0x310>
     710:	00000000 	nop
     714:	00000000 	nop
     718:	02a01021 	move	v0,s5
     71c:	24550001 	addiu	s5,v0,1
     720:	80420000 	lb	v0,0(v0)
     724:	00000000 	nop
     728:	0040a021 	move	s4,v0
     72c:	2683ffe0 	addiu	v1,s4,-32
     730:	2c62005b 	sltiu	v0,v1,91
     734:	10400562 	beqz	v0,1cc0 <_vfprintf_r+0x18b8>
     738:	00000000 	nop
     73c:	00031880 	sll	v1,v1,0x2
     740:	3c020001 	lui	v0,0x1
     744:	24424b08 	addiu	v0,v0,19208
     748:	00621021 	addu	v0,v1,v0
     74c:	8c420000 	lw	v0,0(v0)
     750:	00000000 	nop
     754:	00400008 	jr	v0
     758:	00000000 	nop
     75c:	8fc401f8 	lw	a0,504(s8)
     760:	0c002096 	jal	8258 <_localeconv_r>
     764:	00000000 	nop
     768:	8c420004 	lw	v0,4(v0)
     76c:	00000000 	nop
     770:	afc2003c 	sw	v0,60(s8)
     774:	8fc4003c 	lw	a0,60(s8)
     778:	0c0033af 	jal	cebc <strlen>
     77c:	00000000 	nop
     780:	afc20040 	sw	v0,64(s8)
     784:	8fc401f8 	lw	a0,504(s8)
     788:	0c002096 	jal	8258 <_localeconv_r>
     78c:	00000000 	nop
     790:	8c420008 	lw	v0,8(v0)
     794:	00000000 	nop
     798:	afc20044 	sw	v0,68(s8)
     79c:	8fc20040 	lw	v0,64(s8)
     7a0:	00000000 	nop
     7a4:	1040000e 	beqz	v0,7e0 <_vfprintf_r+0x3d8>
     7a8:	00000000 	nop
     7ac:	8fc20044 	lw	v0,68(s8)
     7b0:	00000000 	nop
     7b4:	1040000a 	beqz	v0,7e0 <_vfprintf_r+0x3d8>
     7b8:	00000000 	nop
     7bc:	8fc20044 	lw	v0,68(s8)
     7c0:	00000000 	nop
     7c4:	80420000 	lb	v0,0(v0)
     7c8:	00000000 	nop
     7cc:	10400004 	beqz	v0,7e0 <_vfprintf_r+0x3d8>
     7d0:	00000000 	nop
     7d4:	36730400 	ori	s3,s3,0x400
     7d8:	080001c6 	j	718 <_vfprintf_r+0x310>
     7dc:	00000000 	nop
     7e0:	080001c6 	j	718 <_vfprintf_r+0x310>
     7e4:	00000000 	nop
     7e8:	83c20098 	lb	v0,152(s8)
     7ec:	00000000 	nop
     7f0:	14400005 	bnez	v0,808 <_vfprintf_r+0x400>
     7f4:	00000000 	nop
     7f8:	24020020 	li	v0,32
     7fc:	a3c20098 	sb	v0,152(s8)
     800:	080001c6 	j	718 <_vfprintf_r+0x310>
     804:	00000000 	nop
     808:	080001c6 	j	718 <_vfprintf_r+0x310>
     80c:	00000000 	nop
     810:	36730001 	ori	s3,s3,0x1
     814:	080001c6 	j	718 <_vfprintf_r+0x310>
     818:	00000000 	nop
     81c:	8fc30204 	lw	v1,516(s8)
     820:	00000000 	nop
     824:	24620004 	addiu	v0,v1,4
     828:	afc20204 	sw	v0,516(s8)
     82c:	8c620000 	lw	v0,0(v1)
     830:	00000000 	nop
     834:	afc20034 	sw	v0,52(s8)
     838:	8fc20034 	lw	v0,52(s8)
     83c:	00000000 	nop
     840:	04400003 	bltz	v0,850 <_vfprintf_r+0x448>
     844:	00000000 	nop
     848:	080001c6 	j	718 <_vfprintf_r+0x310>
     84c:	00000000 	nop
     850:	8fc20034 	lw	v0,52(s8)
     854:	00000000 	nop
     858:	00021023 	negu	v0,v0
     85c:	afc20034 	sw	v0,52(s8)
     860:	36730004 	ori	s3,s3,0x4
     864:	080001c6 	j	718 <_vfprintf_r+0x310>
     868:	00000000 	nop
     86c:	2402002b 	li	v0,43
     870:	a3c20098 	sb	v0,152(s8)
     874:	080001c6 	j	718 <_vfprintf_r+0x310>
     878:	00000000 	nop
     87c:	02a01021 	move	v0,s5
     880:	24550001 	addiu	s5,v0,1
     884:	80420000 	lb	v0,0(v0)
     888:	00000000 	nop
     88c:	0040a021 	move	s4,v0
     890:	2402002a 	li	v0,42
     894:	16820012 	bne	s4,v0,8e0 <_vfprintf_r+0x4d8>
     898:	00000000 	nop
     89c:	8fc30204 	lw	v1,516(s8)
     8a0:	00000000 	nop
     8a4:	24620004 	addiu	v0,v1,4
     8a8:	afc20204 	sw	v0,516(s8)
     8ac:	8c620000 	lw	v0,0(v1)
     8b0:	00000000 	nop
     8b4:	afc20038 	sw	v0,56(s8)
     8b8:	8fc20038 	lw	v0,56(s8)
     8bc:	00000000 	nop
     8c0:	04410005 	bgez	v0,8d8 <_vfprintf_r+0x4d0>
     8c4:	00000000 	nop
     8c8:	2402ffff 	li	v0,-1
     8cc:	afc20038 	sw	v0,56(s8)
     8d0:	080001c6 	j	718 <_vfprintf_r+0x310>
     8d4:	00000000 	nop
     8d8:	080001c6 	j	718 <_vfprintf_r+0x310>
     8dc:	00000000 	nop
     8e0:	00008021 	move	s0,zero
     8e4:	08000246 	j	918 <_vfprintf_r+0x510>
     8e8:	00000000 	nop
     8ec:	02001021 	move	v0,s0
     8f0:	00021040 	sll	v0,v0,0x1
     8f4:	00021880 	sll	v1,v0,0x2
     8f8:	00431821 	addu	v1,v0,v1
     8fc:	2682ffd0 	addiu	v0,s4,-48
     900:	00628021 	addu	s0,v1,v0
     904:	02a01021 	move	v0,s5
     908:	24550001 	addiu	s5,v0,1
     90c:	80420000 	lb	v0,0(v0)
     910:	00000000 	nop
     914:	0040a021 	move	s4,v0
     918:	2682ffd0 	addiu	v0,s4,-48
     91c:	2c42000a 	sltiu	v0,v0,10
     920:	1440fff2 	bnez	v0,8ec <_vfprintf_r+0x4e4>
     924:	00000000 	nop
     928:	02001021 	move	v0,s0
     92c:	04410002 	bgez	v0,938 <_vfprintf_r+0x530>
     930:	00000000 	nop
     934:	2402ffff 	li	v0,-1
     938:	afc20038 	sw	v0,56(s8)
     93c:	080001cb 	j	72c <_vfprintf_r+0x324>
     940:	00000000 	nop
     944:	36730080 	ori	s3,s3,0x80
     948:	080001c6 	j	718 <_vfprintf_r+0x310>
     94c:	00000000 	nop
     950:	00008021 	move	s0,zero
     954:	02001021 	move	v0,s0
     958:	00021040 	sll	v0,v0,0x1
     95c:	00021880 	sll	v1,v0,0x2
     960:	00431821 	addu	v1,v0,v1
     964:	2682ffd0 	addiu	v0,s4,-48
     968:	00628021 	addu	s0,v1,v0
     96c:	02a01021 	move	v0,s5
     970:	24550001 	addiu	s5,v0,1
     974:	80420000 	lb	v0,0(v0)
     978:	00000000 	nop
     97c:	0040a021 	move	s4,v0
     980:	2682ffd0 	addiu	v0,s4,-48
     984:	2c42000a 	sltiu	v0,v0,10
     988:	1440fff2 	bnez	v0,954 <_vfprintf_r+0x54c>
     98c:	00000000 	nop
     990:	afd00034 	sw	s0,52(s8)
     994:	080001cb 	j	72c <_vfprintf_r+0x324>
     998:	00000000 	nop
     99c:	36730008 	ori	s3,s3,0x8
     9a0:	080001c6 	j	718 <_vfprintf_r+0x310>
     9a4:	00000000 	nop
     9a8:	82a30000 	lb	v1,0(s5)
     9ac:	24020068 	li	v0,104
     9b0:	14620005 	bne	v1,v0,9c8 <_vfprintf_r+0x5c0>
     9b4:	00000000 	nop
     9b8:	26b50001 	addiu	s5,s5,1
     9bc:	36730200 	ori	s3,s3,0x200
     9c0:	080001c6 	j	718 <_vfprintf_r+0x310>
     9c4:	00000000 	nop
     9c8:	36730040 	ori	s3,s3,0x40
     9cc:	080001c6 	j	718 <_vfprintf_r+0x310>
     9d0:	00000000 	nop
     9d4:	82a30000 	lb	v1,0(s5)
     9d8:	2402006c 	li	v0,108
     9dc:	14620005 	bne	v1,v0,9f4 <_vfprintf_r+0x5ec>
     9e0:	00000000 	nop
     9e4:	26b50001 	addiu	s5,s5,1
     9e8:	36730020 	ori	s3,s3,0x20
     9ec:	080001c6 	j	718 <_vfprintf_r+0x310>
     9f0:	00000000 	nop
     9f4:	36730010 	ori	s3,s3,0x10
     9f8:	080001c6 	j	718 <_vfprintf_r+0x310>
     9fc:	00000000 	nop
     a00:	36730020 	ori	s3,s3,0x20
     a04:	080001c6 	j	718 <_vfprintf_r+0x310>
     a08:	00000000 	nop
     a0c:	36730020 	ori	s3,s3,0x20
     a10:	080001c6 	j	718 <_vfprintf_r+0x310>
     a14:	00000000 	nop
     a18:	27d20104 	addiu	s2,s8,260
     a1c:	8fc30204 	lw	v1,516(s8)
     a20:	00000000 	nop
     a24:	24620004 	addiu	v0,v1,4
     a28:	afc20204 	sw	v0,516(s8)
     a2c:	8c620000 	lw	v0,0(v1)
     a30:	00000000 	nop
     a34:	00021600 	sll	v0,v0,0x18
     a38:	00021603 	sra	v0,v0,0x18
     a3c:	a2420000 	sb	v0,0(s2)
     a40:	24020001 	li	v0,1
     a44:	afc2006c 	sw	v0,108(s8)
     a48:	a3c00098 	sb	zero,152(s8)
     a4c:	0800073c 	j	1cf0 <_vfprintf_r+0x18e8>
     a50:	00000000 	nop
     a54:	36730010 	ori	s3,s3,0x10
     a58:	32620020 	andi	v0,s3,0x20
     a5c:	1040000c 	beqz	v0,a90 <_vfprintf_r+0x688>
     a60:	00000000 	nop
     a64:	8fc20204 	lw	v0,516(s8)
     a68:	00000000 	nop
     a6c:	24430007 	addiu	v1,v0,7
     a70:	2402fff8 	li	v0,-8
     a74:	00621824 	and	v1,v1,v0
     a78:	24620008 	addiu	v0,v1,8
     a7c:	afc20204 	sw	v0,516(s8)
     a80:	8c620000 	lw	v0,0(v1)
     a84:	8c630004 	lw	v1,4(v1)
     a88:	080002e3 	j	b8c <_vfprintf_r+0x784>
     a8c:	00000000 	nop
     a90:	32620010 	andi	v0,s3,0x10
     a94:	1040000c 	beqz	v0,ac8 <_vfprintf_r+0x6c0>
     a98:	00000000 	nop
     a9c:	8fc30204 	lw	v1,516(s8)
     aa0:	00000000 	nop
     aa4:	24620004 	addiu	v0,v1,4
     aa8:	afc20204 	sw	v0,516(s8)
     aac:	8c620000 	lw	v0,0(v1)
     ab0:	00000000 	nop
     ab4:	afc20174 	sw	v0,372(s8)
     ab8:	000217c3 	sra	v0,v0,0x1f
     abc:	afc20170 	sw	v0,368(s8)
     ac0:	080002e1 	j	b84 <_vfprintf_r+0x77c>
     ac4:	00000000 	nop
     ac8:	32620040 	andi	v0,s3,0x40
     acc:	1040000e 	beqz	v0,b08 <_vfprintf_r+0x700>
     ad0:	00000000 	nop
     ad4:	8fc30204 	lw	v1,516(s8)
     ad8:	00000000 	nop
     adc:	24620004 	addiu	v0,v1,4
     ae0:	afc20204 	sw	v0,516(s8)
     ae4:	8c620000 	lw	v0,0(v1)
     ae8:	00000000 	nop
     aec:	00021400 	sll	v0,v0,0x10
     af0:	00021403 	sra	v0,v0,0x10
     af4:	afc2017c 	sw	v0,380(s8)
     af8:	000217c3 	sra	v0,v0,0x1f
     afc:	afc20178 	sw	v0,376(s8)
     b00:	080002dd 	j	b74 <_vfprintf_r+0x76c>
     b04:	00000000 	nop
     b08:	32620200 	andi	v0,s3,0x200
     b0c:	1040000e 	beqz	v0,b48 <_vfprintf_r+0x740>
     b10:	00000000 	nop
     b14:	8fc30204 	lw	v1,516(s8)
     b18:	00000000 	nop
     b1c:	24620004 	addiu	v0,v1,4
     b20:	afc20204 	sw	v0,516(s8)
     b24:	8c620000 	lw	v0,0(v1)
     b28:	00000000 	nop
     b2c:	00021600 	sll	v0,v0,0x18
     b30:	00021603 	sra	v0,v0,0x18
     b34:	0040b821 	move	s7,v0
     b38:	000217c3 	sra	v0,v0,0x1f
     b3c:	0040b021 	move	s6,v0
     b40:	080002db 	j	b6c <_vfprintf_r+0x764>
     b44:	00000000 	nop
     b48:	8fc30204 	lw	v1,516(s8)
     b4c:	00000000 	nop
     b50:	24620004 	addiu	v0,v1,4
     b54:	afc20204 	sw	v0,516(s8)
     b58:	8c620000 	lw	v0,0(v1)
     b5c:	00000000 	nop
     b60:	0040b821 	move	s7,v0
     b64:	000217c3 	sra	v0,v0,0x1f
     b68:	0040b021 	move	s6,v0
     b6c:	afd7017c 	sw	s7,380(s8)
     b70:	afd60178 	sw	s6,376(s8)
     b74:	8fc5017c 	lw	a1,380(s8)
     b78:	8fc40178 	lw	a0,376(s8)
     b7c:	afc50174 	sw	a1,372(s8)
     b80:	afc40170 	sw	a0,368(s8)
     b84:	8fc30174 	lw	v1,372(s8)
     b88:	8fc20170 	lw	v0,368(s8)
     b8c:	afc3005c 	sw	v1,92(s8)
     b90:	afc20058 	sw	v0,88(s8)
     b94:	8fc3005c 	lw	v1,92(s8)
     b98:	8fc20058 	lw	v0,88(s8)
     b9c:	00000000 	nop
     ba0:	0441000e 	bgez	v0,bdc <_vfprintf_r+0x7d4>
     ba4:	00000000 	nop
     ba8:	00001821 	move	v1,zero
     bac:	00001021 	move	v0,zero
     bb0:	8fc5005c 	lw	a1,92(s8)
     bb4:	8fc40058 	lw	a0,88(s8)
     bb8:	00653823 	subu	a3,v1,a1
     bbc:	0067402b 	sltu	t0,v1,a3
     bc0:	00443023 	subu	a2,v0,a0
     bc4:	00c81023 	subu	v0,a2,t0
     bc8:	00403021 	move	a2,v0
     bcc:	afc7005c 	sw	a3,92(s8)
     bd0:	afc60058 	sw	a2,88(s8)
     bd4:	2402002d 	li	v0,45
     bd8:	a3c20098 	sb	v0,152(s8)
     bdc:	24020001 	li	v0,1
     be0:	a3c20060 	sb	v0,96(s8)
     be4:	0800063d 	j	18f4 <_vfprintf_r+0x14ec>
     be8:	00000000 	nop
     bec:	32620008 	andi	v0,s3,0x8
     bf0:	1040000f 	beqz	v0,c30 <_vfprintf_r+0x828>
     bf4:	00000000 	nop
     bf8:	8fc20204 	lw	v0,516(s8)
     bfc:	00000000 	nop
     c00:	24430007 	addiu	v1,v0,7
     c04:	2402fff8 	li	v0,-8
     c08:	00621824 	and	v1,v1,v0
     c0c:	24620008 	addiu	v0,v1,8
     c10:	afc20204 	sw	v0,516(s8)
     c14:	8c620000 	lw	v0,0(v1)
     c18:	8c630004 	lw	v1,4(v1)
     c1c:	00000000 	nop
     c20:	afc300a4 	sw	v1,164(s8)
     c24:	afc200a0 	sw	v0,160(s8)
     c28:	08000318 	j	c60 <_vfprintf_r+0x858>
     c2c:	00000000 	nop
     c30:	8fc20204 	lw	v0,516(s8)
     c34:	00000000 	nop
     c38:	24430007 	addiu	v1,v0,7
     c3c:	2402fff8 	li	v0,-8
     c40:	00621824 	and	v1,v1,v0
     c44:	24620008 	addiu	v0,v1,8
     c48:	afc20204 	sw	v0,516(s8)
     c4c:	8c620000 	lw	v0,0(v1)
     c50:	8c630004 	lw	v1,4(v1)
     c54:	00000000 	nop
     c58:	afc300a4 	sw	v1,164(s8)
     c5c:	afc200a0 	sw	v0,160(s8)
     c60:	8fc300a4 	lw	v1,164(s8)
     c64:	8fc200a0 	lw	v0,160(s8)
     c68:	00602821 	move	a1,v1
     c6c:	00402021 	move	a0,v0
     c70:	0c00319b 	jal	c66c <__fpclassifyd>
     c74:	00000000 	nop
     c78:	00401821 	move	v1,v0
     c7c:	24020001 	li	v0,1
     c80:	1462001c 	bne	v1,v0,cf4 <_vfprintf_r+0x8ec>
     c84:	00000000 	nop
     c88:	8fc300a4 	lw	v1,164(s8)
     c8c:	8fc200a0 	lw	v0,160(s8)
     c90:	00602821 	move	a1,v1
     c94:	00402021 	move	a0,v0
     c98:	00003821 	move	a3,zero
     c9c:	00003021 	move	a2,zero
     ca0:	0c00503e 	jal	140f8 <__ltdf2>
     ca4:	00000000 	nop
     ca8:	04410003 	bgez	v0,cb8 <_vfprintf_r+0x8b0>
     cac:	00000000 	nop
     cb0:	2402002d 	li	v0,45
     cb4:	a3c20098 	sb	v0,152(s8)
     cb8:	2a820048 	slti	v0,s4,72
     cbc:	10400005 	beqz	v0,cd4 <_vfprintf_r+0x8cc>
     cc0:	00000000 	nop
     cc4:	3c020001 	lui	v0,0x1
     cc8:	24524aa8 	addiu	s2,v0,19112
     ccc:	08000337 	j	cdc <_vfprintf_r+0x8d4>
     cd0:	00000000 	nop
     cd4:	3c020001 	lui	v0,0x1
     cd8:	24524aac 	addiu	s2,v0,19116
     cdc:	24020003 	li	v0,3
     ce0:	afc2006c 	sw	v0,108(s8)
     ce4:	2402ff7f 	li	v0,-129
     ce8:	02629824 	and	s3,s3,v0
     cec:	0800073c 	j	1cf0 <_vfprintf_r+0x18e8>
     cf0:	00000000 	nop
     cf4:	8fc300a4 	lw	v1,164(s8)
     cf8:	8fc200a0 	lw	v0,160(s8)
     cfc:	00602821 	move	a1,v1
     d00:	00402021 	move	a0,v0
     d04:	0c00319b 	jal	c66c <__fpclassifyd>
     d08:	00000000 	nop
     d0c:	14400010 	bnez	v0,d50 <_vfprintf_r+0x948>
     d10:	00000000 	nop
     d14:	2a820048 	slti	v0,s4,72
     d18:	10400005 	beqz	v0,d30 <_vfprintf_r+0x928>
     d1c:	00000000 	nop
     d20:	3c020001 	lui	v0,0x1
     d24:	24524ab0 	addiu	s2,v0,19120
     d28:	0800034e 	j	d38 <_vfprintf_r+0x930>
     d2c:	00000000 	nop
     d30:	3c020001 	lui	v0,0x1
     d34:	24524ab4 	addiu	s2,v0,19124
     d38:	24020003 	li	v0,3
     d3c:	afc2006c 	sw	v0,108(s8)
     d40:	2402ff7f 	li	v0,-129
     d44:	02629824 	and	s3,s3,v0
     d48:	0800073c 	j	1cf0 <_vfprintf_r+0x18e8>
     d4c:	00000000 	nop
     d50:	24020061 	li	v0,97
     d54:	12820004 	beq	s4,v0,d68 <_vfprintf_r+0x960>
     d58:	00000000 	nop
     d5c:	24020041 	li	v0,65
     d60:	1682002f 	bne	s4,v0,e20 <_vfprintf_r+0xa18>
     d64:	00000000 	nop
     d68:	24020030 	li	v0,48
     d6c:	a3c20168 	sb	v0,360(s8)
     d70:	24020061 	li	v0,97
     d74:	16820004 	bne	s4,v0,d88 <_vfprintf_r+0x980>
     d78:	00000000 	nop
     d7c:	24020078 	li	v0,120
     d80:	08000363 	j	d8c <_vfprintf_r+0x984>
     d84:	00000000 	nop
     d88:	24020058 	li	v0,88
     d8c:	a3c20169 	sb	v0,361(s8)
     d90:	36730002 	ori	s3,s3,0x2
     d94:	8fc20038 	lw	v0,56(s8)
     d98:	00000000 	nop
     d9c:	28420064 	slti	v0,v0,100
     da0:	1440001c 	bnez	v0,e14 <_vfprintf_r+0xa0c>
     da4:	00000000 	nop
     da8:	8fc20038 	lw	v0,56(s8)
     dac:	00000000 	nop
     db0:	24420001 	addiu	v0,v0,1
     db4:	8fc401f8 	lw	a0,504(s8)
     db8:	00402821 	move	a1,v0
     dbc:	0c002290 	jal	8a40 <_malloc_r>
     dc0:	00000000 	nop
     dc4:	afc20074 	sw	v0,116(s8)
     dc8:	8fc20074 	lw	v0,116(s8)
     dcc:	00000000 	nop
     dd0:	1440000d 	bnez	v0,e08 <_vfprintf_r+0xa00>
     dd4:	00000000 	nop
     dd8:	8fc201fc 	lw	v0,508(s8)
     ddc:	00000000 	nop
     de0:	8442000c 	lh	v0,12(v0)
     de4:	00000000 	nop
     de8:	34420040 	ori	v0,v0,0x40
     dec:	00021c00 	sll	v1,v0,0x10
     df0:	00031c03 	sra	v1,v1,0x10
     df4:	8fc201fc 	lw	v0,508(s8)
     df8:	00000000 	nop
     dfc:	a443000c 	sh	v1,12(v0)
     e00:	08000da0 	j	3680 <_vfprintf_r+0x3278>
     e04:	00000000 	nop
     e08:	8fd20074 	lw	s2,116(s8)
     e0c:	0800039c 	j	e70 <_vfprintf_r+0xa68>
     e10:	00000000 	nop
     e14:	27d20104 	addiu	s2,s8,260
     e18:	0800039c 	j	e70 <_vfprintf_r+0xa68>
     e1c:	00000000 	nop
     e20:	8fc30038 	lw	v1,56(s8)
     e24:	2402ffff 	li	v0,-1
     e28:	14620005 	bne	v1,v0,e40 <_vfprintf_r+0xa38>
     e2c:	00000000 	nop
     e30:	24020006 	li	v0,6
     e34:	afc20038 	sw	v0,56(s8)
     e38:	0800039c 	j	e70 <_vfprintf_r+0xa68>
     e3c:	00000000 	nop
     e40:	24020067 	li	v0,103
     e44:	12820004 	beq	s4,v0,e58 <_vfprintf_r+0xa50>
     e48:	00000000 	nop
     e4c:	24020047 	li	v0,71
     e50:	16820007 	bne	s4,v0,e70 <_vfprintf_r+0xa68>
     e54:	00000000 	nop
     e58:	8fc20038 	lw	v0,56(s8)
     e5c:	00000000 	nop
     e60:	14400003 	bnez	v0,e70 <_vfprintf_r+0xa68>
     e64:	00000000 	nop
     e68:	24020001 	li	v0,1
     e6c:	afc20038 	sw	v0,56(s8)
     e70:	36730100 	ori	s3,s3,0x100
     e74:	8fc700a4 	lw	a3,164(s8)
     e78:	8fc600a0 	lw	a2,160(s8)
     e7c:	8fc20038 	lw	v0,56(s8)
     e80:	00000000 	nop
     e84:	afa20010 	sw	v0,16(sp)
     e88:	afb30014 	sw	s3,20(sp)
     e8c:	27c20099 	addiu	v0,s8,153
     e90:	afa20018 	sw	v0,24(sp)
     e94:	27c200a8 	addiu	v0,s8,168
     e98:	afa2001c 	sw	v0,28(sp)
     e9c:	afb40020 	sw	s4,32(sp)
     ea0:	27c200b4 	addiu	v0,s8,180
     ea4:	afa20024 	sw	v0,36(sp)
     ea8:	afb20028 	sw	s2,40(sp)
     eac:	8fc401f8 	lw	a0,504(s8)
     eb0:	0c000dc2 	jal	3708 <cvt>
     eb4:	00000000 	nop
     eb8:	00409021 	move	s2,v0
     ebc:	24020067 	li	v0,103
     ec0:	12820004 	beq	s4,v0,ed4 <_vfprintf_r+0xacc>
     ec4:	00000000 	nop
     ec8:	24020047 	li	v0,71
     ecc:	16820012 	bne	s4,v0,f18 <_vfprintf_r+0xb10>
     ed0:	00000000 	nop
     ed4:	8fc200a8 	lw	v0,168(s8)
     ed8:	00000000 	nop
     edc:	2842fffd 	slti	v0,v0,-3
     ee0:	14400007 	bnez	v0,f00 <_vfprintf_r+0xaf8>
     ee4:	00000000 	nop
     ee8:	8fc300a8 	lw	v1,168(s8)
     eec:	8fc20038 	lw	v0,56(s8)
     ef0:	00000000 	nop
     ef4:	0043102a 	slt	v0,v0,v1
     ef8:	10400004 	beqz	v0,f0c <_vfprintf_r+0xb04>
     efc:	00000000 	nop
     f00:	2694fffe 	addiu	s4,s4,-2
     f04:	080003ca 	j	f28 <_vfprintf_r+0xb20>
     f08:	00000000 	nop
     f0c:	24140067 	li	s4,103
     f10:	080003ca 	j	f28 <_vfprintf_r+0xb20>
     f14:	00000000 	nop
     f18:	24020046 	li	v0,70
     f1c:	16820002 	bne	s4,v0,f28 <_vfprintf_r+0xb20>
     f20:	00000000 	nop
     f24:	24140066 	li	s4,102
     f28:	2a820066 	slti	v0,s4,102
     f2c:	10400022 	beqz	v0,fb8 <_vfprintf_r+0xbb0>
     f30:	00000000 	nop
     f34:	8fc200a8 	lw	v0,168(s8)
     f38:	00000000 	nop
     f3c:	2442ffff 	addiu	v0,v0,-1
     f40:	afc200a8 	sw	v0,168(s8)
     f44:	8fc300a8 	lw	v1,168(s8)
     f48:	27c200ac 	addiu	v0,s8,172
     f4c:	00402021 	move	a0,v0
     f50:	00602821 	move	a1,v1
     f54:	02803021 	move	a2,s4
     f58:	0c000f2a 	jal	3ca8 <exponent>
     f5c:	00000000 	nop
     f60:	afc20048 	sw	v0,72(s8)
     f64:	8fc300b4 	lw	v1,180(s8)
     f68:	8fc20048 	lw	v0,72(s8)
     f6c:	00000000 	nop
     f70:	00431021 	addu	v0,v0,v1
     f74:	afc2006c 	sw	v0,108(s8)
     f78:	8fc200b4 	lw	v0,180(s8)
     f7c:	00000000 	nop
     f80:	28420002 	slti	v0,v0,2
     f84:	10400004 	beqz	v0,f98 <_vfprintf_r+0xb90>
     f88:	00000000 	nop
     f8c:	32620001 	andi	v0,s3,0x1
     f90:	10400005 	beqz	v0,fa8 <_vfprintf_r+0xba0>
     f94:	00000000 	nop
     f98:	8fc2006c 	lw	v0,108(s8)
     f9c:	00000000 	nop
     fa0:	24420001 	addiu	v0,v0,1
     fa4:	afc2006c 	sw	v0,108(s8)
     fa8:	2402fbff 	li	v0,-1025
     fac:	02629824 	and	s3,s3,v0
     fb0:	0800048a 	j	1228 <_vfprintf_r+0xe20>
     fb4:	00000000 	nop
     fb8:	24020066 	li	v0,102
     fbc:	16820028 	bne	s4,v0,1060 <_vfprintf_r+0xc58>
     fc0:	00000000 	nop
     fc4:	8fc200a8 	lw	v0,168(s8)
     fc8:	00000000 	nop
     fcc:	18400014 	blez	v0,1020 <_vfprintf_r+0xc18>
     fd0:	00000000 	nop
     fd4:	8fc200a8 	lw	v0,168(s8)
     fd8:	00000000 	nop
     fdc:	afc2006c 	sw	v0,108(s8)
     fe0:	8fc20038 	lw	v0,56(s8)
     fe4:	00000000 	nop
     fe8:	14400004 	bnez	v0,ffc <_vfprintf_r+0xbf4>
     fec:	00000000 	nop
     ff0:	32620001 	andi	v0,s3,0x1
     ff4:	1040003a 	beqz	v0,10e0 <_vfprintf_r+0xcd8>
     ff8:	00000000 	nop
     ffc:	8fc20038 	lw	v0,56(s8)
    1000:	00000000 	nop
    1004:	24430001 	addiu	v1,v0,1
    1008:	8fc2006c 	lw	v0,108(s8)
    100c:	00000000 	nop
    1010:	00431021 	addu	v0,v0,v1
    1014:	afc2006c 	sw	v0,108(s8)
    1018:	08000438 	j	10e0 <_vfprintf_r+0xcd8>
    101c:	00000000 	nop
    1020:	8fc20038 	lw	v0,56(s8)
    1024:	00000000 	nop
    1028:	14400004 	bnez	v0,103c <_vfprintf_r+0xc34>
    102c:	00000000 	nop
    1030:	32620001 	andi	v0,s3,0x1
    1034:	10400006 	beqz	v0,1050 <_vfprintf_r+0xc48>
    1038:	00000000 	nop
    103c:	8fc20038 	lw	v0,56(s8)
    1040:	00000000 	nop
    1044:	24420002 	addiu	v0,v0,2
    1048:	08000415 	j	1054 <_vfprintf_r+0xc4c>
    104c:	00000000 	nop
    1050:	24020001 	li	v0,1
    1054:	afc2006c 	sw	v0,108(s8)
    1058:	08000438 	j	10e0 <_vfprintf_r+0xcd8>
    105c:	00000000 	nop
    1060:	8fc300a8 	lw	v1,168(s8)
    1064:	8fc200b4 	lw	v0,180(s8)
    1068:	00000000 	nop
    106c:	0062102a 	slt	v0,v1,v0
    1070:	1440000d 	bnez	v0,10a8 <_vfprintf_r+0xca0>
    1074:	00000000 	nop
    1078:	8fc200a8 	lw	v0,168(s8)
    107c:	00000000 	nop
    1080:	afc2006c 	sw	v0,108(s8)
    1084:	32620001 	andi	v0,s3,0x1
    1088:	10400015 	beqz	v0,10e0 <_vfprintf_r+0xcd8>
    108c:	00000000 	nop
    1090:	8fc2006c 	lw	v0,108(s8)
    1094:	00000000 	nop
    1098:	24420001 	addiu	v0,v0,1
    109c:	afc2006c 	sw	v0,108(s8)
    10a0:	08000438 	j	10e0 <_vfprintf_r+0xcd8>
    10a4:	00000000 	nop
    10a8:	8fc200a8 	lw	v0,168(s8)
    10ac:	00000000 	nop
    10b0:	1c400006 	bgtz	v0,10cc <_vfprintf_r+0xcc4>
    10b4:	00000000 	nop
    10b8:	8fc300a8 	lw	v1,168(s8)
    10bc:	24020002 	li	v0,2
    10c0:	00431823 	subu	v1,v0,v1
    10c4:	08000434 	j	10d0 <_vfprintf_r+0xcc8>
    10c8:	00000000 	nop
    10cc:	24030001 	li	v1,1
    10d0:	8fc200b4 	lw	v0,180(s8)
    10d4:	00000000 	nop
    10d8:	00621021 	addu	v0,v1,v0
    10dc:	afc2006c 	sw	v0,108(s8)
    10e0:	32620400 	andi	v0,s3,0x400
    10e4:	1040004d 	beqz	v0,121c <_vfprintf_r+0xe14>
    10e8:	00000000 	nop
    10ec:	8fc200a8 	lw	v0,168(s8)
    10f0:	00000000 	nop
    10f4:	18400049 	blez	v0,121c <_vfprintf_r+0xe14>
    10f8:	00000000 	nop
    10fc:	afc00054 	sw	zero,84(s8)
    1100:	8fc20054 	lw	v0,84(s8)
    1104:	00000000 	nop
    1108:	afc20050 	sw	v0,80(s8)
    110c:	8fc200a8 	lw	v0,168(s8)
    1110:	00000000 	nop
    1114:	afc2004c 	sw	v0,76(s8)
    1118:	08000472 	j	11c8 <_vfprintf_r+0xdc0>
    111c:	00000000 	nop
    1120:	8fc20044 	lw	v0,68(s8)
    1124:	00000000 	nop
    1128:	80420000 	lb	v0,0(v0)
    112c:	00000000 	nop
    1130:	00401821 	move	v1,v0
    1134:	8fc2004c 	lw	v0,76(s8)
    1138:	00000000 	nop
    113c:	0062102a 	slt	v0,v1,v0
    1140:	14400003 	bnez	v0,1150 <_vfprintf_r+0xd48>
    1144:	00000000 	nop
    1148:	08000478 	j	11e0 <_vfprintf_r+0xdd8>
    114c:	00000000 	nop
    1150:	8fc20044 	lw	v0,68(s8)
    1154:	00000000 	nop
    1158:	80420000 	lb	v0,0(v0)
    115c:	00000000 	nop
    1160:	00401821 	move	v1,v0
    1164:	8fc2004c 	lw	v0,76(s8)
    1168:	00000000 	nop
    116c:	00431023 	subu	v0,v0,v1
    1170:	afc2004c 	sw	v0,76(s8)
    1174:	8fc20044 	lw	v0,68(s8)
    1178:	00000000 	nop
    117c:	24420001 	addiu	v0,v0,1
    1180:	80420000 	lb	v0,0(v0)
    1184:	00000000 	nop
    1188:	1040000b 	beqz	v0,11b8 <_vfprintf_r+0xdb0>
    118c:	00000000 	nop
    1190:	8fc20050 	lw	v0,80(s8)
    1194:	00000000 	nop
    1198:	24420001 	addiu	v0,v0,1
    119c:	afc20050 	sw	v0,80(s8)
    11a0:	8fc20044 	lw	v0,68(s8)
    11a4:	00000000 	nop
    11a8:	24420001 	addiu	v0,v0,1
    11ac:	afc20044 	sw	v0,68(s8)
    11b0:	08000472 	j	11c8 <_vfprintf_r+0xdc0>
    11b4:	00000000 	nop
    11b8:	8fc20054 	lw	v0,84(s8)
    11bc:	00000000 	nop
    11c0:	24420001 	addiu	v0,v0,1
    11c4:	afc20054 	sw	v0,84(s8)
    11c8:	8fc20044 	lw	v0,68(s8)
    11cc:	00000000 	nop
    11d0:	80430000 	lb	v1,0(v0)
    11d4:	2402007f 	li	v0,127
    11d8:	1462ffd1 	bne	v1,v0,1120 <_vfprintf_r+0xd18>
    11dc:	00000000 	nop
    11e0:	8fc30050 	lw	v1,80(s8)
    11e4:	8fc20054 	lw	v0,84(s8)
    11e8:	00000000 	nop
    11ec:	00621021 	addu	v0,v1,v0
    11f0:	00401821 	move	v1,v0
    11f4:	8fc20040 	lw	v0,64(s8)
    11f8:	00000000 	nop
    11fc:	00620018 	mult	v1,v0
    1200:	00001812 	mflo	v1
    1204:	8fc2006c 	lw	v0,108(s8)
    1208:	00000000 	nop
    120c:	00621021 	addu	v0,v1,v0
    1210:	afc2006c 	sw	v0,108(s8)
    1214:	0800048a 	j	1228 <_vfprintf_r+0xe20>
    1218:	00000000 	nop
    121c:	8fc200a8 	lw	v0,168(s8)
    1220:	00000000 	nop
    1224:	afc2004c 	sw	v0,76(s8)
    1228:	83c20099 	lb	v0,153(s8)
    122c:	00000000 	nop
    1230:	10400005 	beqz	v0,1248 <_vfprintf_r+0xe40>
    1234:	00000000 	nop
    1238:	2402002d 	li	v0,45
    123c:	a3c20098 	sb	v0,152(s8)
    1240:	0800073c 	j	1cf0 <_vfprintf_r+0x18e8>
    1244:	00000000 	nop
    1248:	0800073c 	j	1cf0 <_vfprintf_r+0x18e8>
    124c:	00000000 	nop
    1250:	32620020 	andi	v0,s3,0x20
    1254:	10400011 	beqz	v0,129c <_vfprintf_r+0xe94>
    1258:	00000000 	nop
    125c:	8fc30204 	lw	v1,516(s8)
    1260:	00000000 	nop
    1264:	24620004 	addiu	v0,v1,4
    1268:	afc20204 	sw	v0,516(s8)
    126c:	8c630000 	lw	v1,0(v1)
    1270:	8fc20030 	lw	v0,48(s8)
    1274:	00000000 	nop
    1278:	afc201cc 	sw	v0,460(s8)
    127c:	000217c3 	sra	v0,v0,0x1f
    1280:	afc201c8 	sw	v0,456(s8)
    1284:	8fc501cc 	lw	a1,460(s8)
    1288:	8fc401c8 	lw	a0,456(s8)
    128c:	ac650004 	sw	a1,4(v1)
    1290:	ac640000 	sw	a0,0(v1)
    1294:	080004dc 	j	1370 <_vfprintf_r+0xf68>
    1298:	00000000 	nop
    129c:	32620010 	andi	v0,s3,0x10
    12a0:	1040000b 	beqz	v0,12d0 <_vfprintf_r+0xec8>
    12a4:	00000000 	nop
    12a8:	8fc30204 	lw	v1,516(s8)
    12ac:	00000000 	nop
    12b0:	24620004 	addiu	v0,v1,4
    12b4:	afc20204 	sw	v0,516(s8)
    12b8:	8c630000 	lw	v1,0(v1)
    12bc:	8fc20030 	lw	v0,48(s8)
    12c0:	00000000 	nop
    12c4:	ac620000 	sw	v0,0(v1)
    12c8:	080004dc 	j	1370 <_vfprintf_r+0xf68>
    12cc:	00000000 	nop
    12d0:	32620040 	andi	v0,s3,0x40
    12d4:	1040000d 	beqz	v0,130c <_vfprintf_r+0xf04>
    12d8:	00000000 	nop
    12dc:	8fc30204 	lw	v1,516(s8)
    12e0:	00000000 	nop
    12e4:	24620004 	addiu	v0,v1,4
    12e8:	afc20204 	sw	v0,516(s8)
    12ec:	8c630000 	lw	v1,0(v1)
    12f0:	8fc20030 	lw	v0,48(s8)
    12f4:	00000000 	nop
    12f8:	00021400 	sll	v0,v0,0x10
    12fc:	00021403 	sra	v0,v0,0x10
    1300:	a4620000 	sh	v0,0(v1)
    1304:	080004dc 	j	1370 <_vfprintf_r+0xf68>
    1308:	00000000 	nop
    130c:	32620200 	andi	v0,s3,0x200
    1310:	1040000d 	beqz	v0,1348 <_vfprintf_r+0xf40>
    1314:	00000000 	nop
    1318:	8fc30204 	lw	v1,516(s8)
    131c:	00000000 	nop
    1320:	24620004 	addiu	v0,v1,4
    1324:	afc20204 	sw	v0,516(s8)
    1328:	8c630000 	lw	v1,0(v1)
    132c:	8fc20030 	lw	v0,48(s8)
    1330:	00000000 	nop
    1334:	00021600 	sll	v0,v0,0x18
    1338:	00021603 	sra	v0,v0,0x18
    133c:	a0620000 	sb	v0,0(v1)
    1340:	080004dc 	j	1370 <_vfprintf_r+0xf68>
    1344:	00000000 	nop
    1348:	8fc30204 	lw	v1,516(s8)
    134c:	00000000 	nop
    1350:	24620004 	addiu	v0,v1,4
    1354:	afc20204 	sw	v0,516(s8)
    1358:	8c630000 	lw	v1,0(v1)
    135c:	8fc20030 	lw	v0,48(s8)
    1360:	00000000 	nop
    1364:	ac620000 	sw	v0,0(v1)
    1368:	08000d8e 	j	3638 <_vfprintf_r+0x3230>
    136c:	00000000 	nop
    1370:	08000d8e 	j	3638 <_vfprintf_r+0x3230>
    1374:	00000000 	nop
    1378:	36730010 	ori	s3,s3,0x10
    137c:	32620020 	andi	v0,s3,0x20
    1380:	1040000c 	beqz	v0,13b4 <_vfprintf_r+0xfac>
    1384:	00000000 	nop
    1388:	8fc20204 	lw	v0,516(s8)
    138c:	00000000 	nop
    1390:	24430007 	addiu	v1,v0,7
    1394:	2402fff8 	li	v0,-8
    1398:	00621824 	and	v1,v1,v0
    139c:	24620008 	addiu	v0,v1,8
    13a0:	afc20204 	sw	v0,516(s8)
    13a4:	8c620000 	lw	v0,0(v1)
    13a8:	8c630004 	lw	v1,4(v1)
    13ac:	08000528 	j	14a0 <_vfprintf_r+0x1098>
    13b0:	00000000 	nop
    13b4:	32620010 	andi	v0,s3,0x10
    13b8:	1040000b 	beqz	v0,13e8 <_vfprintf_r+0xfe0>
    13bc:	00000000 	nop
    13c0:	8fc30204 	lw	v1,516(s8)
    13c4:	00000000 	nop
    13c8:	24620004 	addiu	v0,v1,4
    13cc:	afc20204 	sw	v0,516(s8)
    13d0:	8c620000 	lw	v0,0(v1)
    13d4:	00000000 	nop
    13d8:	afc20184 	sw	v0,388(s8)
    13dc:	afc00180 	sw	zero,384(s8)
    13e0:	08000526 	j	1498 <_vfprintf_r+0x1090>
    13e4:	00000000 	nop
    13e8:	32620040 	andi	v0,s3,0x40
    13ec:	1040000c 	beqz	v0,1420 <_vfprintf_r+0x1018>
    13f0:	00000000 	nop
    13f4:	8fc30204 	lw	v1,516(s8)
    13f8:	00000000 	nop
    13fc:	24620004 	addiu	v0,v1,4
    1400:	afc20204 	sw	v0,516(s8)
    1404:	8c620000 	lw	v0,0(v1)
    1408:	00000000 	nop
    140c:	3042ffff 	andi	v0,v0,0xffff
    1410:	afc2018c 	sw	v0,396(s8)
    1414:	afc00188 	sw	zero,392(s8)
    1418:	08000522 	j	1488 <_vfprintf_r+0x1080>
    141c:	00000000 	nop
    1420:	32620200 	andi	v0,s3,0x200
    1424:	1040000c 	beqz	v0,1458 <_vfprintf_r+0x1050>
    1428:	00000000 	nop
    142c:	8fc30204 	lw	v1,516(s8)
    1430:	00000000 	nop
    1434:	24620004 	addiu	v0,v1,4
    1438:	afc20204 	sw	v0,516(s8)
    143c:	8c620000 	lw	v0,0(v1)
    1440:	00000000 	nop
    1444:	304200ff 	andi	v0,v0,0xff
    1448:	afc20194 	sw	v0,404(s8)
    144c:	afc00190 	sw	zero,400(s8)
    1450:	0800051e 	j	1478 <_vfprintf_r+0x1070>
    1454:	00000000 	nop
    1458:	8fc30204 	lw	v1,516(s8)
    145c:	00000000 	nop
    1460:	24620004 	addiu	v0,v1,4
    1464:	afc20204 	sw	v0,516(s8)
    1468:	8c620000 	lw	v0,0(v1)
    146c:	00000000 	nop
    1470:	afc20194 	sw	v0,404(s8)
    1474:	afc00190 	sw	zero,400(s8)
    1478:	8fc30194 	lw	v1,404(s8)
    147c:	8fc20190 	lw	v0,400(s8)
    1480:	afc3018c 	sw	v1,396(s8)
    1484:	afc20188 	sw	v0,392(s8)
    1488:	8fc5018c 	lw	a1,396(s8)
    148c:	8fc40188 	lw	a0,392(s8)
    1490:	afc50184 	sw	a1,388(s8)
    1494:	afc40180 	sw	a0,384(s8)
    1498:	8fc30184 	lw	v1,388(s8)
    149c:	8fc20180 	lw	v0,384(s8)
    14a0:	afc3005c 	sw	v1,92(s8)
    14a4:	afc20058 	sw	v0,88(s8)
    14a8:	a3c00060 	sb	zero,96(s8)
    14ac:	2402fbff 	li	v0,-1025
    14b0:	02629824 	and	s3,s3,v0
    14b4:	0800063c 	j	18f0 <_vfprintf_r+0x14e8>
    14b8:	00000000 	nop
    14bc:	8fc30204 	lw	v1,516(s8)
    14c0:	00000000 	nop
    14c4:	24620004 	addiu	v0,v1,4
    14c8:	afc20204 	sw	v0,516(s8)
    14cc:	8c620000 	lw	v0,0(v1)
    14d0:	00000000 	nop
    14d4:	afc2005c 	sw	v0,92(s8)
    14d8:	afc00058 	sw	zero,88(s8)
    14dc:	24020002 	li	v0,2
    14e0:	a3c20060 	sb	v0,96(s8)
    14e4:	3c020001 	lui	v0,0x1
    14e8:	24424ab8 	addiu	v0,v0,19128
    14ec:	afc20070 	sw	v0,112(s8)
    14f0:	36730002 	ori	s3,s3,0x2
    14f4:	24020030 	li	v0,48
    14f8:	a3c20168 	sb	v0,360(s8)
    14fc:	24140078 	li	s4,120
    1500:	24020078 	li	v0,120
    1504:	a3c20169 	sb	v0,361(s8)
    1508:	0800063c 	j	18f0 <_vfprintf_r+0x14e8>
    150c:	00000000 	nop
    1510:	a3c00098 	sb	zero,152(s8)
    1514:	8fc30204 	lw	v1,516(s8)
    1518:	00000000 	nop
    151c:	24620004 	addiu	v0,v1,4
    1520:	afc20204 	sw	v0,516(s8)
    1524:	8c720000 	lw	s2,0(v1)
    1528:	00000000 	nop
    152c:	1640000d 	bnez	s2,1564 <_vfprintf_r+0x115c>
    1530:	00000000 	nop
    1534:	3c020001 	lui	v0,0x1
    1538:	24524acc 	addiu	s2,v0,19148
    153c:	8fc20038 	lw	v0,56(s8)
    1540:	00000000 	nop
    1544:	00401821 	move	v1,v0
    1548:	2c620007 	sltiu	v0,v1,7
    154c:	14400002 	bnez	v0,1558 <_vfprintf_r+0x1150>
    1550:	00000000 	nop
    1554:	24030006 	li	v1,6
    1558:	afc3006c 	sw	v1,108(s8)
    155c:	08000584 	j	1610 <_vfprintf_r+0x1208>
    1560:	00000000 	nop
    1564:	8fc20038 	lw	v0,56(s8)
    1568:	00000000 	nop
    156c:	04400022 	bltz	v0,15f8 <_vfprintf_r+0x11f0>
    1570:	00000000 	nop
    1574:	8fc20038 	lw	v0,56(s8)
    1578:	02402021 	move	a0,s2
    157c:	00002821 	move	a1,zero
    1580:	00403021 	move	a2,v0
    1584:	0c002686 	jal	9a18 <memchr>
    1588:	00000000 	nop
    158c:	afc20090 	sw	v0,144(s8)
    1590:	8fc20090 	lw	v0,144(s8)
    1594:	00000000 	nop
    1598:	10400010 	beqz	v0,15dc <_vfprintf_r+0x11d4>
    159c:	00000000 	nop
    15a0:	8fc30090 	lw	v1,144(s8)
    15a4:	02401021 	move	v0,s2
    15a8:	00621023 	subu	v0,v1,v0
    15ac:	afc2006c 	sw	v0,108(s8)
    15b0:	8fc3006c 	lw	v1,108(s8)
    15b4:	8fc20038 	lw	v0,56(s8)
    15b8:	00000000 	nop
    15bc:	0043102a 	slt	v0,v0,v1
    15c0:	1040000b 	beqz	v0,15f0 <_vfprintf_r+0x11e8>
    15c4:	00000000 	nop
    15c8:	8fc20038 	lw	v0,56(s8)
    15cc:	00000000 	nop
    15d0:	afc2006c 	sw	v0,108(s8)
    15d4:	08000584 	j	1610 <_vfprintf_r+0x1208>
    15d8:	00000000 	nop
    15dc:	8fc20038 	lw	v0,56(s8)
    15e0:	00000000 	nop
    15e4:	afc2006c 	sw	v0,108(s8)
    15e8:	08000584 	j	1610 <_vfprintf_r+0x1208>
    15ec:	00000000 	nop
    15f0:	08000584 	j	1610 <_vfprintf_r+0x1208>
    15f4:	00000000 	nop
    15f8:	02402021 	move	a0,s2
    15fc:	0c0033af 	jal	cebc <strlen>
    1600:	00000000 	nop
    1604:	afc2006c 	sw	v0,108(s8)
    1608:	0800073c 	j	1cf0 <_vfprintf_r+0x18e8>
    160c:	00000000 	nop
    1610:	0800073c 	j	1cf0 <_vfprintf_r+0x18e8>
    1614:	00000000 	nop
    1618:	36730010 	ori	s3,s3,0x10
    161c:	32620020 	andi	v0,s3,0x20
    1620:	1040000c 	beqz	v0,1654 <_vfprintf_r+0x124c>
    1624:	00000000 	nop
    1628:	8fc20204 	lw	v0,516(s8)
    162c:	00000000 	nop
    1630:	24430007 	addiu	v1,v0,7
    1634:	2402fff8 	li	v0,-8
    1638:	00621824 	and	v1,v1,v0
    163c:	24620008 	addiu	v0,v1,8
    1640:	afc20204 	sw	v0,516(s8)
    1644:	8c620000 	lw	v0,0(v1)
    1648:	8c630004 	lw	v1,4(v1)
    164c:	080005d0 	j	1740 <_vfprintf_r+0x1338>
    1650:	00000000 	nop
    1654:	32620010 	andi	v0,s3,0x10
    1658:	1040000b 	beqz	v0,1688 <_vfprintf_r+0x1280>
    165c:	00000000 	nop
    1660:	8fc30204 	lw	v1,516(s8)
    1664:	00000000 	nop
    1668:	24620004 	addiu	v0,v1,4
    166c:	afc20204 	sw	v0,516(s8)
    1670:	8c620000 	lw	v0,0(v1)
    1674:	00000000 	nop
    1678:	afc2019c 	sw	v0,412(s8)
    167c:	afc00198 	sw	zero,408(s8)
    1680:	080005ce 	j	1738 <_vfprintf_r+0x1330>
    1684:	00000000 	nop
    1688:	32620040 	andi	v0,s3,0x40
    168c:	1040000c 	beqz	v0,16c0 <_vfprintf_r+0x12b8>
    1690:	00000000 	nop
    1694:	8fc30204 	lw	v1,516(s8)
    1698:	00000000 	nop
    169c:	24620004 	addiu	v0,v1,4
    16a0:	afc20204 	sw	v0,516(s8)
    16a4:	8c620000 	lw	v0,0(v1)
    16a8:	00000000 	nop
    16ac:	3042ffff 	andi	v0,v0,0xffff
    16b0:	afc201a4 	sw	v0,420(s8)
    16b4:	afc001a0 	sw	zero,416(s8)
    16b8:	080005ca 	j	1728 <_vfprintf_r+0x1320>
    16bc:	00000000 	nop
    16c0:	32620200 	andi	v0,s3,0x200
    16c4:	1040000c 	beqz	v0,16f8 <_vfprintf_r+0x12f0>
    16c8:	00000000 	nop
    16cc:	8fc30204 	lw	v1,516(s8)
    16d0:	00000000 	nop
    16d4:	24620004 	addiu	v0,v1,4
    16d8:	afc20204 	sw	v0,516(s8)
    16dc:	8c620000 	lw	v0,0(v1)
    16e0:	00000000 	nop
    16e4:	304200ff 	andi	v0,v0,0xff
    16e8:	afc201ac 	sw	v0,428(s8)
    16ec:	afc001a8 	sw	zero,424(s8)
    16f0:	080005c6 	j	1718 <_vfprintf_r+0x1310>
    16f4:	00000000 	nop
    16f8:	8fc30204 	lw	v1,516(s8)
    16fc:	00000000 	nop
    1700:	24620004 	addiu	v0,v1,4
    1704:	afc20204 	sw	v0,516(s8)
    1708:	8c620000 	lw	v0,0(v1)
    170c:	00000000 	nop
    1710:	afc201ac 	sw	v0,428(s8)
    1714:	afc001a8 	sw	zero,424(s8)
    1718:	8fc301ac 	lw	v1,428(s8)
    171c:	8fc201a8 	lw	v0,424(s8)
    1720:	afc301a4 	sw	v1,420(s8)
    1724:	afc201a0 	sw	v0,416(s8)
    1728:	8fc501a4 	lw	a1,420(s8)
    172c:	8fc401a0 	lw	a0,416(s8)
    1730:	afc5019c 	sw	a1,412(s8)
    1734:	afc40198 	sw	a0,408(s8)
    1738:	8fc3019c 	lw	v1,412(s8)
    173c:	8fc20198 	lw	v0,408(s8)
    1740:	afc3005c 	sw	v1,92(s8)
    1744:	afc20058 	sw	v0,88(s8)
    1748:	24020001 	li	v0,1
    174c:	a3c20060 	sb	v0,96(s8)
    1750:	0800063c 	j	18f0 <_vfprintf_r+0x14e8>
    1754:	00000000 	nop
    1758:	3c020001 	lui	v0,0x1
    175c:	24424ad4 	addiu	v0,v0,19156
    1760:	afc20070 	sw	v0,112(s8)
    1764:	080005de 	j	1778 <_vfprintf_r+0x1370>
    1768:	00000000 	nop
    176c:	3c020001 	lui	v0,0x1
    1770:	24424ab8 	addiu	v0,v0,19128
    1774:	afc20070 	sw	v0,112(s8)
    1778:	32620020 	andi	v0,s3,0x20
    177c:	1040000c 	beqz	v0,17b0 <_vfprintf_r+0x13a8>
    1780:	00000000 	nop
    1784:	8fc20204 	lw	v0,516(s8)
    1788:	00000000 	nop
    178c:	24430007 	addiu	v1,v0,7
    1790:	2402fff8 	li	v0,-8
    1794:	00621824 	and	v1,v1,v0
    1798:	24620008 	addiu	v0,v1,8
    179c:	afc20204 	sw	v0,516(s8)
    17a0:	8c620000 	lw	v0,0(v1)
    17a4:	8c630004 	lw	v1,4(v1)
    17a8:	08000627 	j	189c <_vfprintf_r+0x1494>
    17ac:	00000000 	nop
    17b0:	32620010 	andi	v0,s3,0x10
    17b4:	1040000b 	beqz	v0,17e4 <_vfprintf_r+0x13dc>
    17b8:	00000000 	nop
    17bc:	8fc30204 	lw	v1,516(s8)
    17c0:	00000000 	nop
    17c4:	24620004 	addiu	v0,v1,4
    17c8:	afc20204 	sw	v0,516(s8)
    17cc:	8c620000 	lw	v0,0(v1)
    17d0:	00000000 	nop
    17d4:	afc201b4 	sw	v0,436(s8)
    17d8:	afc001b0 	sw	zero,432(s8)
    17dc:	08000625 	j	1894 <_vfprintf_r+0x148c>
    17e0:	00000000 	nop
    17e4:	32620040 	andi	v0,s3,0x40
    17e8:	1040000c 	beqz	v0,181c <_vfprintf_r+0x1414>
    17ec:	00000000 	nop
    17f0:	8fc30204 	lw	v1,516(s8)
    17f4:	00000000 	nop
    17f8:	24620004 	addiu	v0,v1,4
    17fc:	afc20204 	sw	v0,516(s8)
    1800:	8c620000 	lw	v0,0(v1)
    1804:	00000000 	nop
    1808:	3042ffff 	andi	v0,v0,0xffff
    180c:	afc201bc 	sw	v0,444(s8)
    1810:	afc001b8 	sw	zero,440(s8)
    1814:	08000621 	j	1884 <_vfprintf_r+0x147c>
    1818:	00000000 	nop
    181c:	32620200 	andi	v0,s3,0x200
    1820:	1040000c 	beqz	v0,1854 <_vfprintf_r+0x144c>
    1824:	00000000 	nop
    1828:	8fc30204 	lw	v1,516(s8)
    182c:	00000000 	nop
    1830:	24620004 	addiu	v0,v1,4
    1834:	afc20204 	sw	v0,516(s8)
    1838:	8c620000 	lw	v0,0(v1)
    183c:	00000000 	nop
    1840:	304200ff 	andi	v0,v0,0xff
    1844:	afc201c4 	sw	v0,452(s8)
    1848:	afc001c0 	sw	zero,448(s8)
    184c:	0800061d 	j	1874 <_vfprintf_r+0x146c>
    1850:	00000000 	nop
    1854:	8fc30204 	lw	v1,516(s8)
    1858:	00000000 	nop
    185c:	24620004 	addiu	v0,v1,4
    1860:	afc20204 	sw	v0,516(s8)
    1864:	8c620000 	lw	v0,0(v1)
    1868:	00000000 	nop
    186c:	afc201c4 	sw	v0,452(s8)
    1870:	afc001c0 	sw	zero,448(s8)
    1874:	8fc301c4 	lw	v1,452(s8)
    1878:	8fc201c0 	lw	v0,448(s8)
    187c:	afc301bc 	sw	v1,444(s8)
    1880:	afc201b8 	sw	v0,440(s8)
    1884:	8fc501bc 	lw	a1,444(s8)
    1888:	8fc401b8 	lw	a0,440(s8)
    188c:	afc501b4 	sw	a1,436(s8)
    1890:	afc401b0 	sw	a0,432(s8)
    1894:	8fc301b4 	lw	v1,436(s8)
    1898:	8fc201b0 	lw	v0,432(s8)
    189c:	afc3005c 	sw	v1,92(s8)
    18a0:	afc20058 	sw	v0,88(s8)
    18a4:	24020002 	li	v0,2
    18a8:	a3c20060 	sb	v0,96(s8)
    18ac:	32620001 	andi	v0,s3,0x1
    18b0:	1040000d 	beqz	v0,18e8 <_vfprintf_r+0x14e0>
    18b4:	00000000 	nop
    18b8:	8fc30058 	lw	v1,88(s8)
    18bc:	8fc2005c 	lw	v0,92(s8)
    18c0:	00000000 	nop
    18c4:	00621825 	or	v1,v1,v0
    18c8:	10600007 	beqz	v1,18e8 <_vfprintf_r+0x14e0>
    18cc:	00000000 	nop
    18d0:	24020030 	li	v0,48
    18d4:	a3c20168 	sb	v0,360(s8)
    18d8:	00141600 	sll	v0,s4,0x18
    18dc:	00021603 	sra	v0,v0,0x18
    18e0:	a3c20169 	sb	v0,361(s8)
    18e4:	36730002 	ori	s3,s3,0x2
    18e8:	2402fbff 	li	v0,-1025
    18ec:	02629824 	and	s3,s3,v0
    18f0:	a3c00098 	sb	zero,152(s8)
    18f4:	8fc20038 	lw	v0,56(s8)
    18f8:	00000000 	nop
    18fc:	afc20064 	sw	v0,100(s8)
    1900:	8fc20064 	lw	v0,100(s8)
    1904:	00000000 	nop
    1908:	04400003 	bltz	v0,1918 <_vfprintf_r+0x1510>
    190c:	00000000 	nop
    1910:	2402ff7f 	li	v0,-129
    1914:	02629824 	and	s3,s3,v0
    1918:	27d20104 	addiu	s2,s8,260
    191c:	26520064 	addiu	s2,s2,100
    1920:	8fc30058 	lw	v1,88(s8)
    1924:	8fc2005c 	lw	v0,92(s8)
    1928:	00000000 	nop
    192c:	00621825 	or	v1,v1,v0
    1930:	14600005 	bnez	v1,1948 <_vfprintf_r+0x1540>
    1934:	00000000 	nop
    1938:	8fc20038 	lw	v0,56(s8)
    193c:	00000000 	nop
    1940:	104000ce 	beqz	v0,1c7c <_vfprintf_r+0x1874>
    1944:	00000000 	nop
    1948:	93c30060 	lbu	v1,96(s8)
    194c:	24020001 	li	v0,1
    1950:	10620030 	beq	v1,v0,1a14 <_vfprintf_r+0x160c>
    1954:	00000000 	nop
    1958:	24020002 	li	v0,2
    195c:	1062009e 	beq	v1,v0,1bd8 <_vfprintf_r+0x17d0>
    1960:	00000000 	nop
    1964:	146000ba 	bnez	v1,1c50 <_vfprintf_r+0x1848>
    1968:	00000000 	nop
    196c:	2652ffff 	addiu	s2,s2,-1
    1970:	93c2005f 	lbu	v0,95(s8)
    1974:	00000000 	nop
    1978:	30420007 	andi	v0,v0,0x7
    197c:	304200ff 	andi	v0,v0,0xff
    1980:	24420030 	addiu	v0,v0,48
    1984:	304200ff 	andi	v0,v0,0xff
    1988:	00021600 	sll	v0,v0,0x18
    198c:	00021603 	sra	v0,v0,0x18
    1990:	a2420000 	sb	v0,0(s2)
    1994:	8fc20058 	lw	v0,88(s8)
    1998:	00000000 	nop
    199c:	00021f40 	sll	v1,v0,0x1d
    19a0:	8fc2005c 	lw	v0,92(s8)
    19a4:	00000000 	nop
    19a8:	000210c2 	srl	v0,v0,0x3
    19ac:	00431025 	or	v0,v0,v1
    19b0:	afc2005c 	sw	v0,92(s8)
    19b4:	8fc20058 	lw	v0,88(s8)
    19b8:	00000000 	nop
    19bc:	000210c2 	srl	v0,v0,0x3
    19c0:	afc20058 	sw	v0,88(s8)
    19c4:	8fc30058 	lw	v1,88(s8)
    19c8:	8fc2005c 	lw	v0,92(s8)
    19cc:	00000000 	nop
    19d0:	00621825 	or	v1,v1,v0
    19d4:	1460ffe5 	bnez	v1,196c <_vfprintf_r+0x1564>
    19d8:	00000000 	nop
    19dc:	32620001 	andi	v0,s3,0x1
    19e0:	1040000a 	beqz	v0,1a0c <_vfprintf_r+0x1604>
    19e4:	00000000 	nop
    19e8:	82430000 	lb	v1,0(s2)
    19ec:	24020030 	li	v0,48
    19f0:	10620006 	beq	v1,v0,1a0c <_vfprintf_r+0x1604>
    19f4:	00000000 	nop
    19f8:	2652ffff 	addiu	s2,s2,-1
    19fc:	24020030 	li	v0,48
    1a00:	a2420000 	sb	v0,0(s2)
    1a04:	0800071d 	j	1c74 <_vfprintf_r+0x186c>
    1a08:	00000000 	nop
    1a0c:	0800071d 	j	1c74 <_vfprintf_r+0x186c>
    1a10:	00000000 	nop
    1a14:	8fc20058 	lw	v0,88(s8)
    1a18:	00000000 	nop
    1a1c:	14400014 	bnez	v0,1a70 <_vfprintf_r+0x1668>
    1a20:	00000000 	nop
    1a24:	8fc20058 	lw	v0,88(s8)
    1a28:	00000000 	nop
    1a2c:	14400006 	bnez	v0,1a48 <_vfprintf_r+0x1640>
    1a30:	00000000 	nop
    1a34:	8fc2005c 	lw	v0,92(s8)
    1a38:	00000000 	nop
    1a3c:	2c42000a 	sltiu	v0,v0,10
    1a40:	1040000b 	beqz	v0,1a70 <_vfprintf_r+0x1668>
    1a44:	00000000 	nop
    1a48:	2652ffff 	addiu	s2,s2,-1
    1a4c:	93c2005f 	lbu	v0,95(s8)
    1a50:	00000000 	nop
    1a54:	24420030 	addiu	v0,v0,48
    1a58:	304200ff 	andi	v0,v0,0xff
    1a5c:	00021600 	sll	v0,v0,0x18
    1a60:	00021603 	sra	v0,v0,0x18
    1a64:	a2420000 	sb	v0,0(s2)
    1a68:	0800071d 	j	1c74 <_vfprintf_r+0x186c>
    1a6c:	00000000 	nop
    1a70:	afc000b4 	sw	zero,180(s8)
    1a74:	2652ffff 	addiu	s2,s2,-1
    1a78:	8fc3005c 	lw	v1,92(s8)
    1a7c:	8fc20058 	lw	v0,88(s8)
    1a80:	00602821 	move	a1,v1
    1a84:	00402021 	move	a0,v0
    1a88:	2407000a 	li	a3,10
    1a8c:	00003021 	move	a2,zero
    1a90:	0c004beb 	jal	12fac <__umoddi3>
    1a94:	00000000 	nop
    1a98:	306200ff 	andi	v0,v1,0xff
    1a9c:	24420030 	addiu	v0,v0,48
    1aa0:	304200ff 	andi	v0,v0,0xff
    1aa4:	00021600 	sll	v0,v0,0x18
    1aa8:	00021603 	sra	v0,v0,0x18
    1aac:	a2420000 	sb	v0,0(s2)
    1ab0:	8fc200b4 	lw	v0,180(s8)
    1ab4:	00000000 	nop
    1ab8:	24420001 	addiu	v0,v0,1
    1abc:	afc200b4 	sw	v0,180(s8)
    1ac0:	32620400 	andi	v0,s3,0x400
    1ac4:	10400032 	beqz	v0,1b90 <_vfprintf_r+0x1788>
    1ac8:	00000000 	nop
    1acc:	8fc20044 	lw	v0,68(s8)
    1ad0:	00000000 	nop
    1ad4:	80420000 	lb	v0,0(v0)
    1ad8:	00000000 	nop
    1adc:	00401821 	move	v1,v0
    1ae0:	8fc200b4 	lw	v0,180(s8)
    1ae4:	00000000 	nop
    1ae8:	14620029 	bne	v1,v0,1b90 <_vfprintf_r+0x1788>
    1aec:	00000000 	nop
    1af0:	8fc20044 	lw	v0,68(s8)
    1af4:	00000000 	nop
    1af8:	80430000 	lb	v1,0(v0)
    1afc:	2402007f 	li	v0,127
    1b00:	10620023 	beq	v1,v0,1b90 <_vfprintf_r+0x1788>
    1b04:	00000000 	nop
    1b08:	8fc20058 	lw	v0,88(s8)
    1b0c:	00000000 	nop
    1b10:	1440000a 	bnez	v0,1b3c <_vfprintf_r+0x1734>
    1b14:	00000000 	nop
    1b18:	8fc20058 	lw	v0,88(s8)
    1b1c:	00000000 	nop
    1b20:	1440001b 	bnez	v0,1b90 <_vfprintf_r+0x1788>
    1b24:	00000000 	nop
    1b28:	8fc2005c 	lw	v0,92(s8)
    1b2c:	00000000 	nop
    1b30:	2c42000a 	sltiu	v0,v0,10
    1b34:	14400016 	bnez	v0,1b90 <_vfprintf_r+0x1788>
    1b38:	00000000 	nop
    1b3c:	8fc20040 	lw	v0,64(s8)
    1b40:	00000000 	nop
    1b44:	00021023 	negu	v0,v0
    1b48:	02429021 	addu	s2,s2,v0
    1b4c:	02402021 	move	a0,s2
    1b50:	8fc5003c 	lw	a1,60(s8)
    1b54:	8fc60040 	lw	a2,64(s8)
    1b58:	0c0033b6 	jal	ced8 <strncpy>
    1b5c:	00000000 	nop
    1b60:	afc000b4 	sw	zero,180(s8)
    1b64:	8fc20044 	lw	v0,68(s8)
    1b68:	00000000 	nop
    1b6c:	24420001 	addiu	v0,v0,1
    1b70:	80420000 	lb	v0,0(v0)
    1b74:	00000000 	nop
    1b78:	10400005 	beqz	v0,1b90 <_vfprintf_r+0x1788>
    1b7c:	00000000 	nop
    1b80:	8fc20044 	lw	v0,68(s8)
    1b84:	00000000 	nop
    1b88:	24420001 	addiu	v0,v0,1
    1b8c:	afc20044 	sw	v0,68(s8)
    1b90:	8fc3005c 	lw	v1,92(s8)
    1b94:	8fc20058 	lw	v0,88(s8)
    1b98:	00602821 	move	a1,v1
    1b9c:	00402021 	move	a0,v0
    1ba0:	2407000a 	li	a3,10
    1ba4:	00003021 	move	a2,zero
    1ba8:	0c004a57 	jal	1295c <__udivdi3>
    1bac:	00000000 	nop
    1bb0:	afc3005c 	sw	v1,92(s8)
    1bb4:	afc20058 	sw	v0,88(s8)
    1bb8:	8fc30058 	lw	v1,88(s8)
    1bbc:	8fc2005c 	lw	v0,92(s8)
    1bc0:	00000000 	nop
    1bc4:	00621825 	or	v1,v1,v0
    1bc8:	1460ffaa 	bnez	v1,1a74 <_vfprintf_r+0x166c>
    1bcc:	00000000 	nop
    1bd0:	0800071d 	j	1c74 <_vfprintf_r+0x186c>
    1bd4:	00000000 	nop
    1bd8:	2652ffff 	addiu	s2,s2,-1
    1bdc:	8fc2005c 	lw	v0,92(s8)
    1be0:	00000000 	nop
    1be4:	3043000f 	andi	v1,v0,0xf
    1be8:	8fc20070 	lw	v0,112(s8)
    1bec:	00000000 	nop
    1bf0:	00431021 	addu	v0,v0,v1
    1bf4:	80420000 	lb	v0,0(v0)
    1bf8:	00000000 	nop
    1bfc:	a2420000 	sb	v0,0(s2)
    1c00:	8fc20058 	lw	v0,88(s8)
    1c04:	00000000 	nop
    1c08:	00021f00 	sll	v1,v0,0x1c
    1c0c:	8fc2005c 	lw	v0,92(s8)
    1c10:	00000000 	nop
    1c14:	00021102 	srl	v0,v0,0x4
    1c18:	00431025 	or	v0,v0,v1
    1c1c:	afc2005c 	sw	v0,92(s8)
    1c20:	8fc20058 	lw	v0,88(s8)
    1c24:	00000000 	nop
    1c28:	00021102 	srl	v0,v0,0x4
    1c2c:	afc20058 	sw	v0,88(s8)
    1c30:	8fc30058 	lw	v1,88(s8)
    1c34:	8fc2005c 	lw	v0,92(s8)
    1c38:	00000000 	nop
    1c3c:	00621825 	or	v1,v1,v0
    1c40:	1460ffe5 	bnez	v1,1bd8 <_vfprintf_r+0x17d0>
    1c44:	00000000 	nop
    1c48:	0800071d 	j	1c74 <_vfprintf_r+0x186c>
    1c4c:	00000000 	nop
    1c50:	3c020001 	lui	v0,0x1
    1c54:	24524ae8 	addiu	s2,v0,19176
    1c58:	02402021 	move	a0,s2
    1c5c:	0c0033af 	jal	cebc <strlen>
    1c60:	00000000 	nop
    1c64:	afc2006c 	sw	v0,108(s8)
    1c68:	00000000 	nop
    1c6c:	0800073c 	j	1cf0 <_vfprintf_r+0x18e8>
    1c70:	00000000 	nop
    1c74:	08000729 	j	1ca4 <_vfprintf_r+0x189c>
    1c78:	00000000 	nop
    1c7c:	93c20060 	lbu	v0,96(s8)
    1c80:	00000000 	nop
    1c84:	14400007 	bnez	v0,1ca4 <_vfprintf_r+0x189c>
    1c88:	00000000 	nop
    1c8c:	32620001 	andi	v0,s3,0x1
    1c90:	10400004 	beqz	v0,1ca4 <_vfprintf_r+0x189c>
    1c94:	00000000 	nop
    1c98:	2652ffff 	addiu	s2,s2,-1
    1c9c:	24020030 	li	v0,48
    1ca0:	a2420000 	sb	v0,0(s2)
    1ca4:	27c30104 	addiu	v1,s8,260
    1ca8:	24630064 	addiu	v1,v1,100
    1cac:	02401021 	move	v0,s2
    1cb0:	00621023 	subu	v0,v1,v0
    1cb4:	afc2006c 	sw	v0,108(s8)
    1cb8:	0800073c 	j	1cf0 <_vfprintf_r+0x18e8>
    1cbc:	00000000 	nop
    1cc0:	16800003 	bnez	s4,1cd0 <_vfprintf_r+0x18c8>
    1cc4:	00000000 	nop
    1cc8:	08000d90 	j	3640 <_vfprintf_r+0x3238>
    1ccc:	00000000 	nop
    1cd0:	27d20104 	addiu	s2,s8,260
    1cd4:	00141600 	sll	v0,s4,0x18
    1cd8:	00021603 	sra	v0,v0,0x18
    1cdc:	a2420000 	sb	v0,0(s2)
    1ce0:	24020001 	li	v0,1
    1ce4:	afc2006c 	sw	v0,108(s8)
    1ce8:	a3c00098 	sb	zero,152(s8)
    1cec:	00000000 	nop
    1cf0:	8fc40064 	lw	a0,100(s8)
    1cf4:	8fc3006c 	lw	v1,108(s8)
    1cf8:	00000000 	nop
    1cfc:	0064102a 	slt	v0,v1,a0
    1d00:	10400002 	beqz	v0,1d0c <_vfprintf_r+0x1904>
    1d04:	00000000 	nop
    1d08:	00801821 	move	v1,a0
    1d0c:	afc30068 	sw	v1,104(s8)
    1d10:	83c20098 	lb	v0,152(s8)
    1d14:	00000000 	nop
    1d18:	10400005 	beqz	v0,1d30 <_vfprintf_r+0x1928>
    1d1c:	00000000 	nop
    1d20:	8fc20068 	lw	v0,104(s8)
    1d24:	00000000 	nop
    1d28:	24420001 	addiu	v0,v0,1
    1d2c:	afc20068 	sw	v0,104(s8)
    1d30:	32620002 	andi	v0,s3,0x2
    1d34:	10400005 	beqz	v0,1d4c <_vfprintf_r+0x1944>
    1d38:	00000000 	nop
    1d3c:	8fc20068 	lw	v0,104(s8)
    1d40:	00000000 	nop
    1d44:	24420002 	addiu	v0,v0,2
    1d48:	afc20068 	sw	v0,104(s8)
    1d4c:	32620084 	andi	v0,s3,0x84
    1d50:	14400049 	bnez	v0,1e78 <_vfprintf_r+0x1a70>
    1d54:	00000000 	nop
    1d58:	8fc30034 	lw	v1,52(s8)
    1d5c:	8fc20068 	lw	v0,104(s8)
    1d60:	00000000 	nop
    1d64:	00628023 	subu	s0,v1,v0
    1d68:	1a000043 	blez	s0,1e78 <_vfprintf_r+0x1a70>
    1d6c:	00000000 	nop
    1d70:	0800077d 	j	1df4 <_vfprintf_r+0x19ec>
    1d74:	00000000 	nop
    1d78:	3c020001 	lui	v0,0x1
    1d7c:	24424c74 	addiu	v0,v0,19572
    1d80:	ae220000 	sw	v0,0(s1)
    1d84:	24020010 	li	v0,16
    1d88:	ae220004 	sw	v0,4(s1)
    1d8c:	8fc200c0 	lw	v0,192(s8)
    1d90:	00000000 	nop
    1d94:	24420010 	addiu	v0,v0,16
    1d98:	afc200c0 	sw	v0,192(s8)
    1d9c:	26310008 	addiu	s1,s1,8
    1da0:	8fc200bc 	lw	v0,188(s8)
    1da4:	00000000 	nop
    1da8:	24420001 	addiu	v0,v0,1
    1dac:	afc200bc 	sw	v0,188(s8)
    1db0:	8fc200bc 	lw	v0,188(s8)
    1db4:	00000000 	nop
    1db8:	28420008 	slti	v0,v0,8
    1dbc:	1440000c 	bnez	v0,1df0 <_vfprintf_r+0x19e8>
    1dc0:	00000000 	nop
    1dc4:	27c200b8 	addiu	v0,s8,184
    1dc8:	8fc401f8 	lw	a0,504(s8)
    1dcc:	8fc501fc 	lw	a1,508(s8)
    1dd0:	00403021 	move	a2,v0
    1dd4:	0c00352b 	jal	d4ac <__sprint_r>
    1dd8:	00000000 	nop
    1ddc:	10400003 	beqz	v0,1dec <_vfprintf_r+0x19e4>
    1de0:	00000000 	nop
    1de4:	08000da0 	j	3680 <_vfprintf_r+0x3278>
    1de8:	00000000 	nop
    1dec:	27d100c4 	addiu	s1,s8,196
    1df0:	2610fff0 	addiu	s0,s0,-16
    1df4:	2a020011 	slti	v0,s0,17
    1df8:	1040ffdf 	beqz	v0,1d78 <_vfprintf_r+0x1970>
    1dfc:	00000000 	nop
    1e00:	3c020001 	lui	v0,0x1
    1e04:	24424c74 	addiu	v0,v0,19572
    1e08:	ae220000 	sw	v0,0(s1)
    1e0c:	02001021 	move	v0,s0
    1e10:	ae220004 	sw	v0,4(s1)
    1e14:	8fc200c0 	lw	v0,192(s8)
    1e18:	00000000 	nop
    1e1c:	00501021 	addu	v0,v0,s0
    1e20:	afc200c0 	sw	v0,192(s8)
    1e24:	26310008 	addiu	s1,s1,8
    1e28:	8fc200bc 	lw	v0,188(s8)
    1e2c:	00000000 	nop
    1e30:	24420001 	addiu	v0,v0,1
    1e34:	afc200bc 	sw	v0,188(s8)
    1e38:	8fc200bc 	lw	v0,188(s8)
    1e3c:	00000000 	nop
    1e40:	28420008 	slti	v0,v0,8
    1e44:	1440000c 	bnez	v0,1e78 <_vfprintf_r+0x1a70>
    1e48:	00000000 	nop
    1e4c:	27c200b8 	addiu	v0,s8,184
    1e50:	8fc401f8 	lw	a0,504(s8)
    1e54:	8fc501fc 	lw	a1,508(s8)
    1e58:	00403021 	move	a2,v0
    1e5c:	0c00352b 	jal	d4ac <__sprint_r>
    1e60:	00000000 	nop
    1e64:	10400003 	beqz	v0,1e74 <_vfprintf_r+0x1a6c>
    1e68:	00000000 	nop
    1e6c:	08000da0 	j	3680 <_vfprintf_r+0x3278>
    1e70:	00000000 	nop
    1e74:	27d100c4 	addiu	s1,s8,196
    1e78:	83c20098 	lb	v0,152(s8)
    1e7c:	00000000 	nop
    1e80:	1040001e 	beqz	v0,1efc <_vfprintf_r+0x1af4>
    1e84:	00000000 	nop
    1e88:	27c20098 	addiu	v0,s8,152
    1e8c:	ae220000 	sw	v0,0(s1)
    1e90:	24020001 	li	v0,1
    1e94:	ae220004 	sw	v0,4(s1)
    1e98:	8fc200c0 	lw	v0,192(s8)
    1e9c:	00000000 	nop
    1ea0:	24420001 	addiu	v0,v0,1
    1ea4:	afc200c0 	sw	v0,192(s8)
    1ea8:	26310008 	addiu	s1,s1,8
    1eac:	8fc200bc 	lw	v0,188(s8)
    1eb0:	00000000 	nop
    1eb4:	24420001 	addiu	v0,v0,1
    1eb8:	afc200bc 	sw	v0,188(s8)
    1ebc:	8fc200bc 	lw	v0,188(s8)
    1ec0:	00000000 	nop
    1ec4:	28420008 	slti	v0,v0,8
    1ec8:	1440000c 	bnez	v0,1efc <_vfprintf_r+0x1af4>
    1ecc:	00000000 	nop
    1ed0:	27c200b8 	addiu	v0,s8,184
    1ed4:	8fc401f8 	lw	a0,504(s8)
    1ed8:	8fc501fc 	lw	a1,508(s8)
    1edc:	00403021 	move	a2,v0
    1ee0:	0c00352b 	jal	d4ac <__sprint_r>
    1ee4:	00000000 	nop
    1ee8:	10400003 	beqz	v0,1ef8 <_vfprintf_r+0x1af0>
    1eec:	00000000 	nop
    1ef0:	08000da0 	j	3680 <_vfprintf_r+0x3278>
    1ef4:	00000000 	nop
    1ef8:	27d100c4 	addiu	s1,s8,196
    1efc:	32620002 	andi	v0,s3,0x2
    1f00:	1040001e 	beqz	v0,1f7c <_vfprintf_r+0x1b74>
    1f04:	00000000 	nop
    1f08:	27c20168 	addiu	v0,s8,360
    1f0c:	ae220000 	sw	v0,0(s1)
    1f10:	24020002 	li	v0,2
    1f14:	ae220004 	sw	v0,4(s1)
    1f18:	8fc200c0 	lw	v0,192(s8)
    1f1c:	00000000 	nop
    1f20:	24420002 	addiu	v0,v0,2
    1f24:	afc200c0 	sw	v0,192(s8)
    1f28:	26310008 	addiu	s1,s1,8
    1f2c:	8fc200bc 	lw	v0,188(s8)
    1f30:	00000000 	nop
    1f34:	24420001 	addiu	v0,v0,1
    1f38:	afc200bc 	sw	v0,188(s8)
    1f3c:	8fc200bc 	lw	v0,188(s8)
    1f40:	00000000 	nop
    1f44:	28420008 	slti	v0,v0,8
    1f48:	1440000c 	bnez	v0,1f7c <_vfprintf_r+0x1b74>
    1f4c:	00000000 	nop
    1f50:	27c200b8 	addiu	v0,s8,184
    1f54:	8fc401f8 	lw	a0,504(s8)
    1f58:	8fc501fc 	lw	a1,508(s8)
    1f5c:	00403021 	move	a2,v0
    1f60:	0c00352b 	jal	d4ac <__sprint_r>
    1f64:	00000000 	nop
    1f68:	10400003 	beqz	v0,1f78 <_vfprintf_r+0x1b70>
    1f6c:	00000000 	nop
    1f70:	08000da0 	j	3680 <_vfprintf_r+0x3278>
    1f74:	00000000 	nop
    1f78:	27d100c4 	addiu	s1,s8,196
    1f7c:	32630084 	andi	v1,s3,0x84
    1f80:	24020080 	li	v0,128
    1f84:	14620049 	bne	v1,v0,20ac <_vfprintf_r+0x1ca4>
    1f88:	00000000 	nop
    1f8c:	8fc30034 	lw	v1,52(s8)
    1f90:	8fc20068 	lw	v0,104(s8)
    1f94:	00000000 	nop
    1f98:	00628023 	subu	s0,v1,v0
    1f9c:	1a000043 	blez	s0,20ac <_vfprintf_r+0x1ca4>
    1fa0:	00000000 	nop
    1fa4:	0800080a 	j	2028 <_vfprintf_r+0x1c20>
    1fa8:	00000000 	nop
    1fac:	3c020001 	lui	v0,0x1
    1fb0:	24424c84 	addiu	v0,v0,19588
    1fb4:	ae220000 	sw	v0,0(s1)
    1fb8:	24020010 	li	v0,16
    1fbc:	ae220004 	sw	v0,4(s1)
    1fc0:	8fc200c0 	lw	v0,192(s8)
    1fc4:	00000000 	nop
    1fc8:	24420010 	addiu	v0,v0,16
    1fcc:	afc200c0 	sw	v0,192(s8)
    1fd0:	26310008 	addiu	s1,s1,8
    1fd4:	8fc200bc 	lw	v0,188(s8)
    1fd8:	00000000 	nop
    1fdc:	24420001 	addiu	v0,v0,1
    1fe0:	afc200bc 	sw	v0,188(s8)
    1fe4:	8fc200bc 	lw	v0,188(s8)
    1fe8:	00000000 	nop
    1fec:	28420008 	slti	v0,v0,8
    1ff0:	1440000c 	bnez	v0,2024 <_vfprintf_r+0x1c1c>
    1ff4:	00000000 	nop
    1ff8:	27c200b8 	addiu	v0,s8,184
    1ffc:	8fc401f8 	lw	a0,504(s8)
    2000:	8fc501fc 	lw	a1,508(s8)
    2004:	00403021 	move	a2,v0
    2008:	0c00352b 	jal	d4ac <__sprint_r>
    200c:	00000000 	nop
    2010:	10400003 	beqz	v0,2020 <_vfprintf_r+0x1c18>
    2014:	00000000 	nop
    2018:	08000da0 	j	3680 <_vfprintf_r+0x3278>
    201c:	00000000 	nop
    2020:	27d100c4 	addiu	s1,s8,196
    2024:	2610fff0 	addiu	s0,s0,-16
    2028:	2a020011 	slti	v0,s0,17
    202c:	1040ffdf 	beqz	v0,1fac <_vfprintf_r+0x1ba4>
    2030:	00000000 	nop
    2034:	3c020001 	lui	v0,0x1
    2038:	24424c84 	addiu	v0,v0,19588
    203c:	ae220000 	sw	v0,0(s1)
    2040:	02001021 	move	v0,s0
    2044:	ae220004 	sw	v0,4(s1)
    2048:	8fc200c0 	lw	v0,192(s8)
    204c:	00000000 	nop
    2050:	00501021 	addu	v0,v0,s0
    2054:	afc200c0 	sw	v0,192(s8)
    2058:	26310008 	addiu	s1,s1,8
    205c:	8fc200bc 	lw	v0,188(s8)
    2060:	00000000 	nop
    2064:	24420001 	addiu	v0,v0,1
    2068:	afc200bc 	sw	v0,188(s8)
    206c:	8fc200bc 	lw	v0,188(s8)
    2070:	00000000 	nop
    2074:	28420008 	slti	v0,v0,8
    2078:	1440000c 	bnez	v0,20ac <_vfprintf_r+0x1ca4>
    207c:	00000000 	nop
    2080:	27c200b8 	addiu	v0,s8,184
    2084:	8fc401f8 	lw	a0,504(s8)
    2088:	8fc501fc 	lw	a1,508(s8)
    208c:	00403021 	move	a2,v0
    2090:	0c00352b 	jal	d4ac <__sprint_r>
    2094:	00000000 	nop
    2098:	10400003 	beqz	v0,20a8 <_vfprintf_r+0x1ca0>
    209c:	00000000 	nop
    20a0:	08000da0 	j	3680 <_vfprintf_r+0x3278>
    20a4:	00000000 	nop
    20a8:	27d100c4 	addiu	s1,s8,196
    20ac:	8fc30064 	lw	v1,100(s8)
    20b0:	8fc2006c 	lw	v0,108(s8)
    20b4:	00000000 	nop
    20b8:	00628023 	subu	s0,v1,v0
    20bc:	1a000043 	blez	s0,21cc <_vfprintf_r+0x1dc4>
    20c0:	00000000 	nop
    20c4:	08000852 	j	2148 <_vfprintf_r+0x1d40>
    20c8:	00000000 	nop
    20cc:	3c020001 	lui	v0,0x1
    20d0:	24424c84 	addiu	v0,v0,19588
    20d4:	ae220000 	sw	v0,0(s1)
    20d8:	24020010 	li	v0,16
    20dc:	ae220004 	sw	v0,4(s1)
    20e0:	8fc200c0 	lw	v0,192(s8)
    20e4:	00000000 	nop
    20e8:	24420010 	addiu	v0,v0,16
    20ec:	afc200c0 	sw	v0,192(s8)
    20f0:	26310008 	addiu	s1,s1,8
    20f4:	8fc200bc 	lw	v0,188(s8)
    20f8:	00000000 	nop
    20fc:	24420001 	addiu	v0,v0,1
    2100:	afc200bc 	sw	v0,188(s8)
    2104:	8fc200bc 	lw	v0,188(s8)
    2108:	00000000 	nop
    210c:	28420008 	slti	v0,v0,8
    2110:	1440000c 	bnez	v0,2144 <_vfprintf_r+0x1d3c>
    2114:	00000000 	nop
    2118:	27c200b8 	addiu	v0,s8,184
    211c:	8fc401f8 	lw	a0,504(s8)
    2120:	8fc501fc 	lw	a1,508(s8)
    2124:	00403021 	move	a2,v0
    2128:	0c00352b 	jal	d4ac <__sprint_r>
    212c:	00000000 	nop
    2130:	10400003 	beqz	v0,2140 <_vfprintf_r+0x1d38>
    2134:	00000000 	nop
    2138:	08000da0 	j	3680 <_vfprintf_r+0x3278>
    213c:	00000000 	nop
    2140:	27d100c4 	addiu	s1,s8,196
    2144:	2610fff0 	addiu	s0,s0,-16
    2148:	2a020011 	slti	v0,s0,17
    214c:	1040ffdf 	beqz	v0,20cc <_vfprintf_r+0x1cc4>
    2150:	00000000 	nop
    2154:	3c020001 	lui	v0,0x1
    2158:	24424c84 	addiu	v0,v0,19588
    215c:	ae220000 	sw	v0,0(s1)
    2160:	02001021 	move	v0,s0
    2164:	ae220004 	sw	v0,4(s1)
    2168:	8fc200c0 	lw	v0,192(s8)
    216c:	00000000 	nop
    2170:	00501021 	addu	v0,v0,s0
    2174:	afc200c0 	sw	v0,192(s8)
    2178:	26310008 	addiu	s1,s1,8
    217c:	8fc200bc 	lw	v0,188(s8)
    2180:	00000000 	nop
    2184:	24420001 	addiu	v0,v0,1
    2188:	afc200bc 	sw	v0,188(s8)
    218c:	8fc200bc 	lw	v0,188(s8)
    2190:	00000000 	nop
    2194:	28420008 	slti	v0,v0,8
    2198:	1440000c 	bnez	v0,21cc <_vfprintf_r+0x1dc4>
    219c:	00000000 	nop
    21a0:	27c200b8 	addiu	v0,s8,184
    21a4:	8fc401f8 	lw	a0,504(s8)
    21a8:	8fc501fc 	lw	a1,508(s8)
    21ac:	00403021 	move	a2,v0
    21b0:	0c00352b 	jal	d4ac <__sprint_r>
    21b4:	00000000 	nop
    21b8:	10400003 	beqz	v0,21c8 <_vfprintf_r+0x1dc0>
    21bc:	00000000 	nop
    21c0:	08000da0 	j	3680 <_vfprintf_r+0x3278>
    21c4:	00000000 	nop
    21c8:	27d100c4 	addiu	s1,s8,196
    21cc:	32620100 	andi	v0,s3,0x100
    21d0:	14400021 	bnez	v0,2258 <_vfprintf_r+0x1e50>
    21d4:	00000000 	nop
    21d8:	ae320000 	sw	s2,0(s1)
    21dc:	8fc2006c 	lw	v0,108(s8)
    21e0:	00000000 	nop
    21e4:	ae220004 	sw	v0,4(s1)
    21e8:	8fc300c0 	lw	v1,192(s8)
    21ec:	8fc2006c 	lw	v0,108(s8)
    21f0:	00000000 	nop
    21f4:	00621021 	addu	v0,v1,v0
    21f8:	afc200c0 	sw	v0,192(s8)
    21fc:	26310008 	addiu	s1,s1,8
    2200:	8fc200bc 	lw	v0,188(s8)
    2204:	00000000 	nop
    2208:	24420001 	addiu	v0,v0,1
    220c:	afc200bc 	sw	v0,188(s8)
    2210:	8fc200bc 	lw	v0,188(s8)
    2214:	00000000 	nop
    2218:	28420008 	slti	v0,v0,8
    221c:	14400495 	bnez	v0,3474 <_vfprintf_r+0x306c>
    2220:	00000000 	nop
    2224:	27c200b8 	addiu	v0,s8,184
    2228:	8fc401f8 	lw	a0,504(s8)
    222c:	8fc501fc 	lw	a1,508(s8)
    2230:	00403021 	move	a2,v0
    2234:	0c00352b 	jal	d4ac <__sprint_r>
    2238:	00000000 	nop
    223c:	10400003 	beqz	v0,224c <_vfprintf_r+0x1e44>
    2240:	00000000 	nop
    2244:	08000da0 	j	3680 <_vfprintf_r+0x3278>
    2248:	00000000 	nop
    224c:	27d100c4 	addiu	s1,s8,196
    2250:	08000d1d 	j	3474 <_vfprintf_r+0x306c>
    2254:	00000000 	nop
    2258:	2a820066 	slti	v0,s4,102
    225c:	1440038c 	bnez	v0,3090 <_vfprintf_r+0x2c88>
    2260:	00000000 	nop
    2264:	8fc300a4 	lw	v1,164(s8)
    2268:	8fc200a0 	lw	v0,160(s8)
    226c:	00602821 	move	a1,v1
    2270:	00402021 	move	a0,v0
    2274:	00003821 	move	a3,zero
    2278:	00003021 	move	a2,zero
    227c:	0c004fe4 	jal	13f90 <__eqdf2>
    2280:	00000000 	nop
    2284:	14400093 	bnez	v0,24d4 <_vfprintf_r+0x20cc>
    2288:	00000000 	nop
    228c:	3c020001 	lui	v0,0x1
    2290:	24424b04 	addiu	v0,v0,19204
    2294:	ae220000 	sw	v0,0(s1)
    2298:	24020001 	li	v0,1
    229c:	ae220004 	sw	v0,4(s1)
    22a0:	8fc200c0 	lw	v0,192(s8)
    22a4:	00000000 	nop
    22a8:	24420001 	addiu	v0,v0,1
    22ac:	afc200c0 	sw	v0,192(s8)
    22b0:	26310008 	addiu	s1,s1,8
    22b4:	8fc200bc 	lw	v0,188(s8)
    22b8:	00000000 	nop
    22bc:	24420001 	addiu	v0,v0,1
    22c0:	afc200bc 	sw	v0,188(s8)
    22c4:	8fc200bc 	lw	v0,188(s8)
    22c8:	00000000 	nop
    22cc:	28420008 	slti	v0,v0,8
    22d0:	1440000c 	bnez	v0,2304 <_vfprintf_r+0x1efc>
    22d4:	00000000 	nop
    22d8:	27c200b8 	addiu	v0,s8,184
    22dc:	8fc401f8 	lw	a0,504(s8)
    22e0:	8fc501fc 	lw	a1,508(s8)
    22e4:	00403021 	move	a2,v0
    22e8:	0c00352b 	jal	d4ac <__sprint_r>
    22ec:	00000000 	nop
    22f0:	10400003 	beqz	v0,2300 <_vfprintf_r+0x1ef8>
    22f4:	00000000 	nop
    22f8:	08000da0 	j	3680 <_vfprintf_r+0x3278>
    22fc:	00000000 	nop
    2300:	27d100c4 	addiu	s1,s8,196
    2304:	8fc300a8 	lw	v1,168(s8)
    2308:	8fc200b4 	lw	v0,180(s8)
    230c:	00000000 	nop
    2310:	0062102a 	slt	v0,v1,v0
    2314:	14400004 	bnez	v0,2328 <_vfprintf_r+0x1f20>
    2318:	00000000 	nop
    231c:	32620001 	andi	v0,s3,0x1
    2320:	10400454 	beqz	v0,3474 <_vfprintf_r+0x306c>
    2324:	00000000 	nop
    2328:	8fc20084 	lw	v0,132(s8)
    232c:	00000000 	nop
    2330:	ae220000 	sw	v0,0(s1)
    2334:	8fc20088 	lw	v0,136(s8)
    2338:	00000000 	nop
    233c:	ae220004 	sw	v0,4(s1)
    2340:	8fc200c0 	lw	v0,192(s8)
    2344:	00000000 	nop
    2348:	00401821 	move	v1,v0
    234c:	8fc20088 	lw	v0,136(s8)
    2350:	00000000 	nop
    2354:	00621021 	addu	v0,v1,v0
    2358:	afc200c0 	sw	v0,192(s8)
    235c:	26310008 	addiu	s1,s1,8
    2360:	8fc200bc 	lw	v0,188(s8)
    2364:	00000000 	nop
    2368:	24420001 	addiu	v0,v0,1
    236c:	afc200bc 	sw	v0,188(s8)
    2370:	8fc200bc 	lw	v0,188(s8)
    2374:	00000000 	nop
    2378:	28420008 	slti	v0,v0,8
    237c:	1440000c 	bnez	v0,23b0 <_vfprintf_r+0x1fa8>
    2380:	00000000 	nop
    2384:	27c200b8 	addiu	v0,s8,184
    2388:	8fc401f8 	lw	a0,504(s8)
    238c:	8fc501fc 	lw	a1,508(s8)
    2390:	00403021 	move	a2,v0
    2394:	0c00352b 	jal	d4ac <__sprint_r>
    2398:	00000000 	nop
    239c:	10400003 	beqz	v0,23ac <_vfprintf_r+0x1fa4>
    23a0:	00000000 	nop
    23a4:	08000da0 	j	3680 <_vfprintf_r+0x3278>
    23a8:	00000000 	nop
    23ac:	27d100c4 	addiu	s1,s8,196
    23b0:	8fc200b4 	lw	v0,180(s8)
    23b4:	00000000 	nop
    23b8:	2450ffff 	addiu	s0,v0,-1
    23bc:	1a00042d 	blez	s0,3474 <_vfprintf_r+0x306c>
    23c0:	00000000 	nop
    23c4:	08000912 	j	2448 <_vfprintf_r+0x2040>
    23c8:	00000000 	nop
    23cc:	3c020001 	lui	v0,0x1
    23d0:	24424c84 	addiu	v0,v0,19588
    23d4:	ae220000 	sw	v0,0(s1)
    23d8:	24020010 	li	v0,16
    23dc:	ae220004 	sw	v0,4(s1)
    23e0:	8fc200c0 	lw	v0,192(s8)
    23e4:	00000000 	nop
    23e8:	24420010 	addiu	v0,v0,16
    23ec:	afc200c0 	sw	v0,192(s8)
    23f0:	26310008 	addiu	s1,s1,8
    23f4:	8fc200bc 	lw	v0,188(s8)
    23f8:	00000000 	nop
    23fc:	24420001 	addiu	v0,v0,1
    2400:	afc200bc 	sw	v0,188(s8)
    2404:	8fc200bc 	lw	v0,188(s8)
    2408:	00000000 	nop
    240c:	28420008 	slti	v0,v0,8
    2410:	1440000c 	bnez	v0,2444 <_vfprintf_r+0x203c>
    2414:	00000000 	nop
    2418:	27c200b8 	addiu	v0,s8,184
    241c:	8fc401f8 	lw	a0,504(s8)
    2420:	8fc501fc 	lw	a1,508(s8)
    2424:	00403021 	move	a2,v0
    2428:	0c00352b 	jal	d4ac <__sprint_r>
    242c:	00000000 	nop
    2430:	10400003 	beqz	v0,2440 <_vfprintf_r+0x2038>
    2434:	00000000 	nop
    2438:	08000da0 	j	3680 <_vfprintf_r+0x3278>
    243c:	00000000 	nop
    2440:	27d100c4 	addiu	s1,s8,196
    2444:	2610fff0 	addiu	s0,s0,-16
    2448:	2a020011 	slti	v0,s0,17
    244c:	1040ffdf 	beqz	v0,23cc <_vfprintf_r+0x1fc4>
    2450:	00000000 	nop
    2454:	3c020001 	lui	v0,0x1
    2458:	24424c84 	addiu	v0,v0,19588
    245c:	ae220000 	sw	v0,0(s1)
    2460:	02001021 	move	v0,s0
    2464:	ae220004 	sw	v0,4(s1)
    2468:	8fc200c0 	lw	v0,192(s8)
    246c:	00000000 	nop
    2470:	00501021 	addu	v0,v0,s0
    2474:	afc200c0 	sw	v0,192(s8)
    2478:	26310008 	addiu	s1,s1,8
    247c:	8fc200bc 	lw	v0,188(s8)
    2480:	00000000 	nop
    2484:	24420001 	addiu	v0,v0,1
    2488:	afc200bc 	sw	v0,188(s8)
    248c:	8fc200bc 	lw	v0,188(s8)
    2490:	00000000 	nop
    2494:	28420008 	slti	v0,v0,8
    2498:	144003f6 	bnez	v0,3474 <_vfprintf_r+0x306c>
    249c:	00000000 	nop
    24a0:	27c200b8 	addiu	v0,s8,184
    24a4:	8fc401f8 	lw	a0,504(s8)
    24a8:	8fc501fc 	lw	a1,508(s8)
    24ac:	00403021 	move	a2,v0
    24b0:	0c00352b 	jal	d4ac <__sprint_r>
    24b4:	00000000 	nop
    24b8:	10400003 	beqz	v0,24c8 <_vfprintf_r+0x20c0>
    24bc:	00000000 	nop
    24c0:	08000da0 	j	3680 <_vfprintf_r+0x3278>
    24c4:	00000000 	nop
    24c8:	27d100c4 	addiu	s1,s8,196
    24cc:	08000d1d 	j	3474 <_vfprintf_r+0x306c>
    24d0:	00000000 	nop
    24d4:	8fc200a8 	lw	v0,168(s8)
    24d8:	00000000 	nop
    24dc:	1c4000b3 	bgtz	v0,27ac <_vfprintf_r+0x23a4>
    24e0:	00000000 	nop
    24e4:	3c020001 	lui	v0,0x1
    24e8:	24424b04 	addiu	v0,v0,19204
    24ec:	ae220000 	sw	v0,0(s1)
    24f0:	24020001 	li	v0,1
    24f4:	ae220004 	sw	v0,4(s1)
    24f8:	8fc200c0 	lw	v0,192(s8)
    24fc:	00000000 	nop
    2500:	24420001 	addiu	v0,v0,1
    2504:	afc200c0 	sw	v0,192(s8)
    2508:	26310008 	addiu	s1,s1,8
    250c:	8fc200bc 	lw	v0,188(s8)
    2510:	00000000 	nop
    2514:	24420001 	addiu	v0,v0,1
    2518:	afc200bc 	sw	v0,188(s8)
    251c:	8fc200bc 	lw	v0,188(s8)
    2520:	00000000 	nop
    2524:	28420008 	slti	v0,v0,8
    2528:	1440000c 	bnez	v0,255c <_vfprintf_r+0x2154>
    252c:	00000000 	nop
    2530:	27c200b8 	addiu	v0,s8,184
    2534:	8fc401f8 	lw	a0,504(s8)
    2538:	8fc501fc 	lw	a1,508(s8)
    253c:	00403021 	move	a2,v0
    2540:	0c00352b 	jal	d4ac <__sprint_r>
    2544:	00000000 	nop
    2548:	10400003 	beqz	v0,2558 <_vfprintf_r+0x2150>
    254c:	00000000 	nop
    2550:	08000da0 	j	3680 <_vfprintf_r+0x3278>
    2554:	00000000 	nop
    2558:	27d100c4 	addiu	s1,s8,196
    255c:	8fc200a8 	lw	v0,168(s8)
    2560:	00000000 	nop
    2564:	14400008 	bnez	v0,2588 <_vfprintf_r+0x2180>
    2568:	00000000 	nop
    256c:	8fc200b4 	lw	v0,180(s8)
    2570:	00000000 	nop
    2574:	14400004 	bnez	v0,2588 <_vfprintf_r+0x2180>
    2578:	00000000 	nop
    257c:	32620001 	andi	v0,s3,0x1
    2580:	104003bc 	beqz	v0,3474 <_vfprintf_r+0x306c>
    2584:	00000000 	nop
    2588:	8fc20084 	lw	v0,132(s8)
    258c:	00000000 	nop
    2590:	ae220000 	sw	v0,0(s1)
    2594:	8fc20088 	lw	v0,136(s8)
    2598:	00000000 	nop
    259c:	ae220004 	sw	v0,4(s1)
    25a0:	8fc200c0 	lw	v0,192(s8)
    25a4:	00000000 	nop
    25a8:	00401821 	move	v1,v0
    25ac:	8fc20088 	lw	v0,136(s8)
    25b0:	00000000 	nop
    25b4:	00621021 	addu	v0,v1,v0
    25b8:	afc200c0 	sw	v0,192(s8)
    25bc:	26310008 	addiu	s1,s1,8
    25c0:	8fc200bc 	lw	v0,188(s8)
    25c4:	00000000 	nop
    25c8:	24420001 	addiu	v0,v0,1
    25cc:	afc200bc 	sw	v0,188(s8)
    25d0:	8fc200bc 	lw	v0,188(s8)
    25d4:	00000000 	nop
    25d8:	28420008 	slti	v0,v0,8
    25dc:	1440000c 	bnez	v0,2610 <_vfprintf_r+0x2208>
    25e0:	00000000 	nop
    25e4:	27c200b8 	addiu	v0,s8,184
    25e8:	8fc401f8 	lw	a0,504(s8)
    25ec:	8fc501fc 	lw	a1,508(s8)
    25f0:	00403021 	move	a2,v0
    25f4:	0c00352b 	jal	d4ac <__sprint_r>
    25f8:	00000000 	nop
    25fc:	10400003 	beqz	v0,260c <_vfprintf_r+0x2204>
    2600:	00000000 	nop
    2604:	08000da0 	j	3680 <_vfprintf_r+0x3278>
    2608:	00000000 	nop
    260c:	27d100c4 	addiu	s1,s8,196
    2610:	8fc200a8 	lw	v0,168(s8)
    2614:	00000000 	nop
    2618:	00028023 	negu	s0,v0
    261c:	1a000043 	blez	s0,272c <_vfprintf_r+0x2324>
    2620:	00000000 	nop
    2624:	080009aa 	j	26a8 <_vfprintf_r+0x22a0>
    2628:	00000000 	nop
    262c:	3c020001 	lui	v0,0x1
    2630:	24424c84 	addiu	v0,v0,19588
    2634:	ae220000 	sw	v0,0(s1)
    2638:	24020010 	li	v0,16
    263c:	ae220004 	sw	v0,4(s1)
    2640:	8fc200c0 	lw	v0,192(s8)
    2644:	00000000 	nop
    2648:	24420010 	addiu	v0,v0,16
    264c:	afc200c0 	sw	v0,192(s8)
    2650:	26310008 	addiu	s1,s1,8
    2654:	8fc200bc 	lw	v0,188(s8)
    2658:	00000000 	nop
    265c:	24420001 	addiu	v0,v0,1
    2660:	afc200bc 	sw	v0,188(s8)
    2664:	8fc200bc 	lw	v0,188(s8)
    2668:	00000000 	nop
    266c:	28420008 	slti	v0,v0,8
    2670:	1440000c 	bnez	v0,26a4 <_vfprintf_r+0x229c>
    2674:	00000000 	nop
    2678:	27c200b8 	addiu	v0,s8,184
    267c:	8fc401f8 	lw	a0,504(s8)
    2680:	8fc501fc 	lw	a1,508(s8)
    2684:	00403021 	move	a2,v0
    2688:	0c00352b 	jal	d4ac <__sprint_r>
    268c:	00000000 	nop
    2690:	10400003 	beqz	v0,26a0 <_vfprintf_r+0x2298>
    2694:	00000000 	nop
    2698:	08000da0 	j	3680 <_vfprintf_r+0x3278>
    269c:	00000000 	nop
    26a0:	27d100c4 	addiu	s1,s8,196
    26a4:	2610fff0 	addiu	s0,s0,-16
    26a8:	2a020011 	slti	v0,s0,17
    26ac:	1040ffdf 	beqz	v0,262c <_vfprintf_r+0x2224>
    26b0:	00000000 	nop
    26b4:	3c020001 	lui	v0,0x1
    26b8:	24424c84 	addiu	v0,v0,19588
    26bc:	ae220000 	sw	v0,0(s1)
    26c0:	02001021 	move	v0,s0
    26c4:	ae220004 	sw	v0,4(s1)
    26c8:	8fc200c0 	lw	v0,192(s8)
    26cc:	00000000 	nop
    26d0:	00501021 	addu	v0,v0,s0
    26d4:	afc200c0 	sw	v0,192(s8)
    26d8:	26310008 	addiu	s1,s1,8
    26dc:	8fc200bc 	lw	v0,188(s8)
    26e0:	00000000 	nop
    26e4:	24420001 	addiu	v0,v0,1
    26e8:	afc200bc 	sw	v0,188(s8)
    26ec:	8fc200bc 	lw	v0,188(s8)
    26f0:	00000000 	nop
    26f4:	28420008 	slti	v0,v0,8
    26f8:	1440000c 	bnez	v0,272c <_vfprintf_r+0x2324>
    26fc:	00000000 	nop
    2700:	27c200b8 	addiu	v0,s8,184
    2704:	8fc401f8 	lw	a0,504(s8)
    2708:	8fc501fc 	lw	a1,508(s8)
    270c:	00403021 	move	a2,v0
    2710:	0c00352b 	jal	d4ac <__sprint_r>
    2714:	00000000 	nop
    2718:	10400003 	beqz	v0,2728 <_vfprintf_r+0x2320>
    271c:	00000000 	nop
    2720:	08000da0 	j	3680 <_vfprintf_r+0x3278>
    2724:	00000000 	nop
    2728:	27d100c4 	addiu	s1,s8,196
    272c:	ae320000 	sw	s2,0(s1)
    2730:	8fc200b4 	lw	v0,180(s8)
    2734:	00000000 	nop
    2738:	ae220004 	sw	v0,4(s1)
    273c:	8fc300c0 	lw	v1,192(s8)
    2740:	8fc200b4 	lw	v0,180(s8)
    2744:	00000000 	nop
    2748:	00621021 	addu	v0,v1,v0
    274c:	afc200c0 	sw	v0,192(s8)
    2750:	26310008 	addiu	s1,s1,8
    2754:	8fc200bc 	lw	v0,188(s8)
    2758:	00000000 	nop
    275c:	24420001 	addiu	v0,v0,1
    2760:	afc200bc 	sw	v0,188(s8)
    2764:	8fc200bc 	lw	v0,188(s8)
    2768:	00000000 	nop
    276c:	28420008 	slti	v0,v0,8
    2770:	14400340 	bnez	v0,3474 <_vfprintf_r+0x306c>
    2774:	00000000 	nop
    2778:	27c200b8 	addiu	v0,s8,184
    277c:	8fc401f8 	lw	a0,504(s8)
    2780:	8fc501fc 	lw	a1,508(s8)
    2784:	00403021 	move	a2,v0
    2788:	0c00352b 	jal	d4ac <__sprint_r>
    278c:	00000000 	nop
    2790:	10400003 	beqz	v0,27a0 <_vfprintf_r+0x2398>
    2794:	00000000 	nop
    2798:	08000da0 	j	3680 <_vfprintf_r+0x3278>
    279c:	00000000 	nop
    27a0:	27d100c4 	addiu	s1,s8,196
    27a4:	08000d1d 	j	3474 <_vfprintf_r+0x306c>
    27a8:	00000000 	nop
    27ac:	afd20094 	sw	s2,148(s8)
    27b0:	8fc200b4 	lw	v0,180(s8)
    27b4:	00000000 	nop
    27b8:	00401821 	move	v1,v0
    27bc:	8fc20094 	lw	v0,148(s8)
    27c0:	00000000 	nop
    27c4:	00431021 	addu	v0,v0,v1
    27c8:	00401821 	move	v1,v0
    27cc:	02401021 	move	v0,s2
    27d0:	00621023 	subu	v0,v1,v0
    27d4:	afc20078 	sw	v0,120(s8)
    27d8:	8fc30078 	lw	v1,120(s8)
    27dc:	8fc2004c 	lw	v0,76(s8)
    27e0:	00000000 	nop
    27e4:	0043102a 	slt	v0,v0,v1
    27e8:	10400004 	beqz	v0,27fc <_vfprintf_r+0x23f4>
    27ec:	00000000 	nop
    27f0:	8fc2004c 	lw	v0,76(s8)
    27f4:	00000000 	nop
    27f8:	afc20078 	sw	v0,120(s8)
    27fc:	8fc20078 	lw	v0,120(s8)
    2800:	00000000 	nop
    2804:	1840001f 	blez	v0,2884 <_vfprintf_r+0x247c>
    2808:	00000000 	nop
    280c:	ae320000 	sw	s2,0(s1)
    2810:	8fc20078 	lw	v0,120(s8)
    2814:	00000000 	nop
    2818:	ae220004 	sw	v0,4(s1)
    281c:	8fc300c0 	lw	v1,192(s8)
    2820:	8fc20078 	lw	v0,120(s8)
    2824:	00000000 	nop
    2828:	00621021 	addu	v0,v1,v0
    282c:	afc200c0 	sw	v0,192(s8)
    2830:	26310008 	addiu	s1,s1,8
    2834:	8fc200bc 	lw	v0,188(s8)
    2838:	00000000 	nop
    283c:	24420001 	addiu	v0,v0,1
    2840:	afc200bc 	sw	v0,188(s8)
    2844:	8fc200bc 	lw	v0,188(s8)
    2848:	00000000 	nop
    284c:	28420008 	slti	v0,v0,8
    2850:	1440000c 	bnez	v0,2884 <_vfprintf_r+0x247c>
    2854:	00000000 	nop
    2858:	27c200b8 	addiu	v0,s8,184
    285c:	8fc401f8 	lw	a0,504(s8)
    2860:	8fc501fc 	lw	a1,508(s8)
    2864:	00403021 	move	a2,v0
    2868:	0c00352b 	jal	d4ac <__sprint_r>
    286c:	00000000 	nop
    2870:	10400003 	beqz	v0,2880 <_vfprintf_r+0x2478>
    2874:	00000000 	nop
    2878:	08000da0 	j	3680 <_vfprintf_r+0x3278>
    287c:	00000000 	nop
    2880:	27d100c4 	addiu	s1,s8,196
    2884:	8fc30078 	lw	v1,120(s8)
    2888:	00000000 	nop
    288c:	04610002 	bgez	v1,2898 <_vfprintf_r+0x2490>
    2890:	00000000 	nop
    2894:	00001821 	move	v1,zero
    2898:	8fc2004c 	lw	v0,76(s8)
    289c:	00000000 	nop
    28a0:	00431023 	subu	v0,v0,v1
    28a4:	afc20078 	sw	v0,120(s8)
    28a8:	8fc20078 	lw	v0,120(s8)
    28ac:	00000000 	nop
    28b0:	1840004a 	blez	v0,29dc <_vfprintf_r+0x25d4>
    28b4:	00000000 	nop
    28b8:	08000a52 	j	2948 <_vfprintf_r+0x2540>
    28bc:	00000000 	nop
    28c0:	3c020001 	lui	v0,0x1
    28c4:	24424c84 	addiu	v0,v0,19588
    28c8:	ae220000 	sw	v0,0(s1)
    28cc:	24020010 	li	v0,16
    28d0:	ae220004 	sw	v0,4(s1)
    28d4:	8fc200c0 	lw	v0,192(s8)
    28d8:	00000000 	nop
    28dc:	24420010 	addiu	v0,v0,16
    28e0:	afc200c0 	sw	v0,192(s8)
    28e4:	26310008 	addiu	s1,s1,8
    28e8:	8fc200bc 	lw	v0,188(s8)
    28ec:	00000000 	nop
    28f0:	24420001 	addiu	v0,v0,1
    28f4:	afc200bc 	sw	v0,188(s8)
    28f8:	8fc200bc 	lw	v0,188(s8)
    28fc:	00000000 	nop
    2900:	28420008 	slti	v0,v0,8
    2904:	1440000c 	bnez	v0,2938 <_vfprintf_r+0x2530>
    2908:	00000000 	nop
    290c:	27c200b8 	addiu	v0,s8,184
    2910:	8fc401f8 	lw	a0,504(s8)
    2914:	8fc501fc 	lw	a1,508(s8)
    2918:	00403021 	move	a2,v0
    291c:	0c00352b 	jal	d4ac <__sprint_r>
    2920:	00000000 	nop
    2924:	10400003 	beqz	v0,2934 <_vfprintf_r+0x252c>
    2928:	00000000 	nop
    292c:	08000da0 	j	3680 <_vfprintf_r+0x3278>
    2930:	00000000 	nop
    2934:	27d100c4 	addiu	s1,s8,196
    2938:	8fc20078 	lw	v0,120(s8)
    293c:	00000000 	nop
    2940:	2442fff0 	addiu	v0,v0,-16
    2944:	afc20078 	sw	v0,120(s8)
    2948:	8fc20078 	lw	v0,120(s8)
    294c:	00000000 	nop
    2950:	28420011 	slti	v0,v0,17
    2954:	1040ffda 	beqz	v0,28c0 <_vfprintf_r+0x24b8>
    2958:	00000000 	nop
    295c:	3c020001 	lui	v0,0x1
    2960:	24424c84 	addiu	v0,v0,19588
    2964:	ae220000 	sw	v0,0(s1)
    2968:	8fc20078 	lw	v0,120(s8)
    296c:	00000000 	nop
    2970:	ae220004 	sw	v0,4(s1)
    2974:	8fc300c0 	lw	v1,192(s8)
    2978:	8fc20078 	lw	v0,120(s8)
    297c:	00000000 	nop
    2980:	00621021 	addu	v0,v1,v0
    2984:	afc200c0 	sw	v0,192(s8)
    2988:	26310008 	addiu	s1,s1,8
    298c:	8fc200bc 	lw	v0,188(s8)
    2990:	00000000 	nop
    2994:	24420001 	addiu	v0,v0,1
    2998:	afc200bc 	sw	v0,188(s8)
    299c:	8fc200bc 	lw	v0,188(s8)
    29a0:	00000000 	nop
    29a4:	28420008 	slti	v0,v0,8
    29a8:	1440000c 	bnez	v0,29dc <_vfprintf_r+0x25d4>
    29ac:	00000000 	nop
    29b0:	27c200b8 	addiu	v0,s8,184
    29b4:	8fc401f8 	lw	a0,504(s8)
    29b8:	8fc501fc 	lw	a1,508(s8)
    29bc:	00403021 	move	a2,v0
    29c0:	0c00352b 	jal	d4ac <__sprint_r>
    29c4:	00000000 	nop
    29c8:	10400003 	beqz	v0,29d8 <_vfprintf_r+0x25d0>
    29cc:	00000000 	nop
    29d0:	08000da0 	j	3680 <_vfprintf_r+0x3278>
    29d4:	00000000 	nop
    29d8:	27d100c4 	addiu	s1,s8,196
    29dc:	8fc2004c 	lw	v0,76(s8)
    29e0:	00000000 	nop
    29e4:	02429021 	addu	s2,s2,v0
    29e8:	32620400 	andi	v0,s3,0x400
    29ec:	104000e7 	beqz	v0,2d8c <_vfprintf_r+0x2984>
    29f0:	00000000 	nop
    29f4:	08000b4c 	j	2d30 <_vfprintf_r+0x2928>
    29f8:	00000000 	nop
    29fc:	8fc20054 	lw	v0,84(s8)
    2a00:	00000000 	nop
    2a04:	18400007 	blez	v0,2a24 <_vfprintf_r+0x261c>
    2a08:	00000000 	nop
    2a0c:	8fc20054 	lw	v0,84(s8)
    2a10:	00000000 	nop
    2a14:	2442ffff 	addiu	v0,v0,-1
    2a18:	afc20054 	sw	v0,84(s8)
    2a1c:	08000a91 	j	2a44 <_vfprintf_r+0x263c>
    2a20:	00000000 	nop
    2a24:	8fc20044 	lw	v0,68(s8)
    2a28:	00000000 	nop
    2a2c:	2442ffff 	addiu	v0,v0,-1
    2a30:	afc20044 	sw	v0,68(s8)
    2a34:	8fc20050 	lw	v0,80(s8)
    2a38:	00000000 	nop
    2a3c:	2442ffff 	addiu	v0,v0,-1
    2a40:	afc20050 	sw	v0,80(s8)
    2a44:	8fc2003c 	lw	v0,60(s8)
    2a48:	00000000 	nop
    2a4c:	ae220000 	sw	v0,0(s1)
    2a50:	8fc20040 	lw	v0,64(s8)
    2a54:	00000000 	nop
    2a58:	ae220004 	sw	v0,4(s1)
    2a5c:	8fc200c0 	lw	v0,192(s8)
    2a60:	00000000 	nop
    2a64:	00401821 	move	v1,v0
    2a68:	8fc20040 	lw	v0,64(s8)
    2a6c:	00000000 	nop
    2a70:	00621021 	addu	v0,v1,v0
    2a74:	afc200c0 	sw	v0,192(s8)
    2a78:	26310008 	addiu	s1,s1,8
    2a7c:	8fc200bc 	lw	v0,188(s8)
    2a80:	00000000 	nop
    2a84:	24420001 	addiu	v0,v0,1
    2a88:	afc200bc 	sw	v0,188(s8)
    2a8c:	8fc200bc 	lw	v0,188(s8)
    2a90:	00000000 	nop
    2a94:	28420008 	slti	v0,v0,8
    2a98:	1440000c 	bnez	v0,2acc <_vfprintf_r+0x26c4>
    2a9c:	00000000 	nop
    2aa0:	27c200b8 	addiu	v0,s8,184
    2aa4:	8fc401f8 	lw	a0,504(s8)
    2aa8:	8fc501fc 	lw	a1,508(s8)
    2aac:	00403021 	move	a2,v0
    2ab0:	0c00352b 	jal	d4ac <__sprint_r>
    2ab4:	00000000 	nop
    2ab8:	10400003 	beqz	v0,2ac8 <_vfprintf_r+0x26c0>
    2abc:	00000000 	nop
    2ac0:	08000da0 	j	3680 <_vfprintf_r+0x3278>
    2ac4:	00000000 	nop
    2ac8:	27d100c4 	addiu	s1,s8,196
    2acc:	8fc200b4 	lw	v0,180(s8)
    2ad0:	00000000 	nop
    2ad4:	00401821 	move	v1,v0
    2ad8:	8fc20094 	lw	v0,148(s8)
    2adc:	00000000 	nop
    2ae0:	00431021 	addu	v0,v0,v1
    2ae4:	00401821 	move	v1,v0
    2ae8:	02401021 	move	v0,s2
    2aec:	00621023 	subu	v0,v1,v0
    2af0:	afc2007c 	sw	v0,124(s8)
    2af4:	8fc20044 	lw	v0,68(s8)
    2af8:	00000000 	nop
    2afc:	80420000 	lb	v0,0(v0)
    2b00:	00000000 	nop
    2b04:	00401821 	move	v1,v0
    2b08:	8fc2007c 	lw	v0,124(s8)
    2b0c:	00000000 	nop
    2b10:	0062102a 	slt	v0,v1,v0
    2b14:	10400006 	beqz	v0,2b30 <_vfprintf_r+0x2728>
    2b18:	00000000 	nop
    2b1c:	8fc20044 	lw	v0,68(s8)
    2b20:	00000000 	nop
    2b24:	80420000 	lb	v0,0(v0)
    2b28:	00000000 	nop
    2b2c:	afc2007c 	sw	v0,124(s8)
    2b30:	8fc2007c 	lw	v0,124(s8)
    2b34:	00000000 	nop
    2b38:	1840001f 	blez	v0,2bb8 <_vfprintf_r+0x27b0>
    2b3c:	00000000 	nop
    2b40:	ae320000 	sw	s2,0(s1)
    2b44:	8fc2007c 	lw	v0,124(s8)
    2b48:	00000000 	nop
    2b4c:	ae220004 	sw	v0,4(s1)
    2b50:	8fc300c0 	lw	v1,192(s8)
    2b54:	8fc2007c 	lw	v0,124(s8)
    2b58:	00000000 	nop
    2b5c:	00621021 	addu	v0,v1,v0
    2b60:	afc200c0 	sw	v0,192(s8)
    2b64:	26310008 	addiu	s1,s1,8
    2b68:	8fc200bc 	lw	v0,188(s8)
    2b6c:	00000000 	nop
    2b70:	24420001 	addiu	v0,v0,1
    2b74:	afc200bc 	sw	v0,188(s8)
    2b78:	8fc200bc 	lw	v0,188(s8)
    2b7c:	00000000 	nop
    2b80:	28420008 	slti	v0,v0,8
    2b84:	1440000c 	bnez	v0,2bb8 <_vfprintf_r+0x27b0>
    2b88:	00000000 	nop
    2b8c:	27c200b8 	addiu	v0,s8,184
    2b90:	8fc401f8 	lw	a0,504(s8)
    2b94:	8fc501fc 	lw	a1,508(s8)
    2b98:	00403021 	move	a2,v0
    2b9c:	0c00352b 	jal	d4ac <__sprint_r>
    2ba0:	00000000 	nop
    2ba4:	10400003 	beqz	v0,2bb4 <_vfprintf_r+0x27ac>
    2ba8:	00000000 	nop
    2bac:	08000da0 	j	3680 <_vfprintf_r+0x3278>
    2bb0:	00000000 	nop
    2bb4:	27d100c4 	addiu	s1,s8,196
    2bb8:	8fc20044 	lw	v0,68(s8)
    2bbc:	00000000 	nop
    2bc0:	80420000 	lb	v0,0(v0)
    2bc4:	00000000 	nop
    2bc8:	00401821 	move	v1,v0
    2bcc:	8fc2007c 	lw	v0,124(s8)
    2bd0:	00000000 	nop
    2bd4:	04410002 	bgez	v0,2be0 <_vfprintf_r+0x27d8>
    2bd8:	00000000 	nop
    2bdc:	00001021 	move	v0,zero
    2be0:	00621023 	subu	v0,v1,v0
    2be4:	afc2007c 	sw	v0,124(s8)
    2be8:	8fc2007c 	lw	v0,124(s8)
    2bec:	00000000 	nop
    2bf0:	1840004a 	blez	v0,2d1c <_vfprintf_r+0x2914>
    2bf4:	00000000 	nop
    2bf8:	08000b22 	j	2c88 <_vfprintf_r+0x2880>
    2bfc:	00000000 	nop
    2c00:	3c020001 	lui	v0,0x1
    2c04:	24424c84 	addiu	v0,v0,19588
    2c08:	ae220000 	sw	v0,0(s1)
    2c0c:	24020010 	li	v0,16
    2c10:	ae220004 	sw	v0,4(s1)
    2c14:	8fc200c0 	lw	v0,192(s8)
    2c18:	00000000 	nop
    2c1c:	24420010 	addiu	v0,v0,16
    2c20:	afc200c0 	sw	v0,192(s8)
    2c24:	26310008 	addiu	s1,s1,8
    2c28:	8fc200bc 	lw	v0,188(s8)
    2c2c:	00000000 	nop
    2c30:	24420001 	addiu	v0,v0,1
    2c34:	afc200bc 	sw	v0,188(s8)
    2c38:	8fc200bc 	lw	v0,188(s8)
    2c3c:	00000000 	nop
    2c40:	28420008 	slti	v0,v0,8
    2c44:	1440000c 	bnez	v0,2c78 <_vfprintf_r+0x2870>
    2c48:	00000000 	nop
    2c4c:	27c200b8 	addiu	v0,s8,184
    2c50:	8fc401f8 	lw	a0,504(s8)
    2c54:	8fc501fc 	lw	a1,508(s8)
    2c58:	00403021 	move	a2,v0
    2c5c:	0c00352b 	jal	d4ac <__sprint_r>
    2c60:	00000000 	nop
    2c64:	10400003 	beqz	v0,2c74 <_vfprintf_r+0x286c>
    2c68:	00000000 	nop
    2c6c:	08000da0 	j	3680 <_vfprintf_r+0x3278>
    2c70:	00000000 	nop
    2c74:	27d100c4 	addiu	s1,s8,196
    2c78:	8fc2007c 	lw	v0,124(s8)
    2c7c:	00000000 	nop
    2c80:	2442fff0 	addiu	v0,v0,-16
    2c84:	afc2007c 	sw	v0,124(s8)
    2c88:	8fc2007c 	lw	v0,124(s8)
    2c8c:	00000000 	nop
    2c90:	28420011 	slti	v0,v0,17
    2c94:	1040ffda 	beqz	v0,2c00 <_vfprintf_r+0x27f8>
    2c98:	00000000 	nop
    2c9c:	3c020001 	lui	v0,0x1
    2ca0:	24424c84 	addiu	v0,v0,19588
    2ca4:	ae220000 	sw	v0,0(s1)
    2ca8:	8fc2007c 	lw	v0,124(s8)
    2cac:	00000000 	nop
    2cb0:	ae220004 	sw	v0,4(s1)
    2cb4:	8fc300c0 	lw	v1,192(s8)
    2cb8:	8fc2007c 	lw	v0,124(s8)
    2cbc:	00000000 	nop
    2cc0:	00621021 	addu	v0,v1,v0
    2cc4:	afc200c0 	sw	v0,192(s8)
    2cc8:	26310008 	addiu	s1,s1,8
    2ccc:	8fc200bc 	lw	v0,188(s8)
    2cd0:	00000000 	nop
    2cd4:	24420001 	addiu	v0,v0,1
    2cd8:	afc200bc 	sw	v0,188(s8)
    2cdc:	8fc200bc 	lw	v0,188(s8)
    2ce0:	00000000 	nop
    2ce4:	28420008 	slti	v0,v0,8
    2ce8:	1440000c 	bnez	v0,2d1c <_vfprintf_r+0x2914>
    2cec:	00000000 	nop
    2cf0:	27c200b8 	addiu	v0,s8,184
    2cf4:	8fc401f8 	lw	a0,504(s8)
    2cf8:	8fc501fc 	lw	a1,508(s8)
    2cfc:	00403021 	move	a2,v0
    2d00:	0c00352b 	jal	d4ac <__sprint_r>
    2d04:	00000000 	nop
    2d08:	10400003 	beqz	v0,2d18 <_vfprintf_r+0x2910>
    2d0c:	00000000 	nop
    2d10:	08000da0 	j	3680 <_vfprintf_r+0x3278>
    2d14:	00000000 	nop
    2d18:	27d100c4 	addiu	s1,s8,196
    2d1c:	8fc20044 	lw	v0,68(s8)
    2d20:	00000000 	nop
    2d24:	80420000 	lb	v0,0(v0)
    2d28:	00000000 	nop
    2d2c:	02429021 	addu	s2,s2,v0
    2d30:	8fc20050 	lw	v0,80(s8)
    2d34:	00000000 	nop
    2d38:	1c40ff30 	bgtz	v0,29fc <_vfprintf_r+0x25f4>
    2d3c:	00000000 	nop
    2d40:	8fc20054 	lw	v0,84(s8)
    2d44:	00000000 	nop
    2d48:	1c40ff2c 	bgtz	v0,29fc <_vfprintf_r+0x25f4>
    2d4c:	00000000 	nop
    2d50:	8fc200b4 	lw	v0,180(s8)
    2d54:	00000000 	nop
    2d58:	00401821 	move	v1,v0
    2d5c:	8fc20094 	lw	v0,148(s8)
    2d60:	00000000 	nop
    2d64:	00431021 	addu	v0,v0,v1
    2d68:	0052102b 	sltu	v0,v0,s2
    2d6c:	10400007 	beqz	v0,2d8c <_vfprintf_r+0x2984>
    2d70:	00000000 	nop
    2d74:	8fc200b4 	lw	v0,180(s8)
    2d78:	00000000 	nop
    2d7c:	00401821 	move	v1,v0
    2d80:	8fc20094 	lw	v0,148(s8)
    2d84:	00000000 	nop
    2d88:	00439021 	addu	s2,v0,v1
    2d8c:	8fc300a8 	lw	v1,168(s8)
    2d90:	8fc200b4 	lw	v0,180(s8)
    2d94:	00000000 	nop
    2d98:	0062102a 	slt	v0,v1,v0
    2d9c:	14400004 	bnez	v0,2db0 <_vfprintf_r+0x29a8>
    2da0:	00000000 	nop
    2da4:	32620001 	andi	v0,s3,0x1
    2da8:	10400023 	beqz	v0,2e38 <_vfprintf_r+0x2a30>
    2dac:	00000000 	nop
    2db0:	8fc20084 	lw	v0,132(s8)
    2db4:	00000000 	nop
    2db8:	ae220000 	sw	v0,0(s1)
    2dbc:	8fc20088 	lw	v0,136(s8)
    2dc0:	00000000 	nop
    2dc4:	ae220004 	sw	v0,4(s1)
    2dc8:	8fc200c0 	lw	v0,192(s8)
    2dcc:	00000000 	nop
    2dd0:	00401821 	move	v1,v0
    2dd4:	8fc20088 	lw	v0,136(s8)
    2dd8:	00000000 	nop
    2ddc:	00621021 	addu	v0,v1,v0
    2de0:	afc200c0 	sw	v0,192(s8)
    2de4:	26310008 	addiu	s1,s1,8
    2de8:	8fc200bc 	lw	v0,188(s8)
    2dec:	00000000 	nop
    2df0:	24420001 	addiu	v0,v0,1
    2df4:	afc200bc 	sw	v0,188(s8)
    2df8:	8fc200bc 	lw	v0,188(s8)
    2dfc:	00000000 	nop
    2e00:	28420008 	slti	v0,v0,8
    2e04:	1440000c 	bnez	v0,2e38 <_vfprintf_r+0x2a30>
    2e08:	00000000 	nop
    2e0c:	27c200b8 	addiu	v0,s8,184
    2e10:	8fc401f8 	lw	a0,504(s8)
    2e14:	8fc501fc 	lw	a1,508(s8)
    2e18:	00403021 	move	a2,v0
    2e1c:	0c00352b 	jal	d4ac <__sprint_r>
    2e20:	00000000 	nop
    2e24:	10400003 	beqz	v0,2e34 <_vfprintf_r+0x2a2c>
    2e28:	00000000 	nop
    2e2c:	08000da0 	j	3680 <_vfprintf_r+0x3278>
    2e30:	00000000 	nop
    2e34:	27d100c4 	addiu	s1,s8,196
    2e38:	8fc200b4 	lw	v0,180(s8)
    2e3c:	00000000 	nop
    2e40:	00401821 	move	v1,v0
    2e44:	8fc20094 	lw	v0,148(s8)
    2e48:	00000000 	nop
    2e4c:	00431021 	addu	v0,v0,v1
    2e50:	00401821 	move	v1,v0
    2e54:	02401021 	move	v0,s2
    2e58:	00621023 	subu	v0,v1,v0
    2e5c:	afc20080 	sw	v0,128(s8)
    2e60:	8fc300b4 	lw	v1,180(s8)
    2e64:	8fc200a8 	lw	v0,168(s8)
    2e68:	00000000 	nop
    2e6c:	00621823 	subu	v1,v1,v0
    2e70:	8fc20080 	lw	v0,128(s8)
    2e74:	00000000 	nop
    2e78:	0062102a 	slt	v0,v1,v0
    2e7c:	10400006 	beqz	v0,2e98 <_vfprintf_r+0x2a90>
    2e80:	00000000 	nop
    2e84:	8fc300b4 	lw	v1,180(s8)
    2e88:	8fc200a8 	lw	v0,168(s8)
    2e8c:	00000000 	nop
    2e90:	00621023 	subu	v0,v1,v0
    2e94:	afc20080 	sw	v0,128(s8)
    2e98:	8fc20080 	lw	v0,128(s8)
    2e9c:	00000000 	nop
    2ea0:	1840001f 	blez	v0,2f20 <_vfprintf_r+0x2b18>
    2ea4:	00000000 	nop
    2ea8:	ae320000 	sw	s2,0(s1)
    2eac:	8fc20080 	lw	v0,128(s8)
    2eb0:	00000000 	nop
    2eb4:	ae220004 	sw	v0,4(s1)
    2eb8:	8fc300c0 	lw	v1,192(s8)
    2ebc:	8fc20080 	lw	v0,128(s8)
    2ec0:	00000000 	nop
    2ec4:	00621021 	addu	v0,v1,v0
    2ec8:	afc200c0 	sw	v0,192(s8)
    2ecc:	26310008 	addiu	s1,s1,8
    2ed0:	8fc200bc 	lw	v0,188(s8)
    2ed4:	00000000 	nop
    2ed8:	24420001 	addiu	v0,v0,1
    2edc:	afc200bc 	sw	v0,188(s8)
    2ee0:	8fc200bc 	lw	v0,188(s8)
    2ee4:	00000000 	nop
    2ee8:	28420008 	slti	v0,v0,8
    2eec:	1440000c 	bnez	v0,2f20 <_vfprintf_r+0x2b18>
    2ef0:	00000000 	nop
    2ef4:	27c200b8 	addiu	v0,s8,184
    2ef8:	8fc401f8 	lw	a0,504(s8)
    2efc:	8fc501fc 	lw	a1,508(s8)
    2f00:	00403021 	move	a2,v0
    2f04:	0c00352b 	jal	d4ac <__sprint_r>
    2f08:	00000000 	nop
    2f0c:	10400003 	beqz	v0,2f1c <_vfprintf_r+0x2b14>
    2f10:	00000000 	nop
    2f14:	08000da0 	j	3680 <_vfprintf_r+0x3278>
    2f18:	00000000 	nop
    2f1c:	27d100c4 	addiu	s1,s8,196
    2f20:	8fc300b4 	lw	v1,180(s8)
    2f24:	8fc200a8 	lw	v0,168(s8)
    2f28:	00000000 	nop
    2f2c:	00621823 	subu	v1,v1,v0
    2f30:	8fc20080 	lw	v0,128(s8)
    2f34:	00000000 	nop
    2f38:	04410002 	bgez	v0,2f44 <_vfprintf_r+0x2b3c>
    2f3c:	00000000 	nop
    2f40:	00001021 	move	v0,zero
    2f44:	00621023 	subu	v0,v1,v0
    2f48:	afc20080 	sw	v0,128(s8)
    2f4c:	8fc20080 	lw	v0,128(s8)
    2f50:	00000000 	nop
    2f54:	1840004c 	blez	v0,3088 <_vfprintf_r+0x2c80>
    2f58:	00000000 	nop
    2f5c:	08000bfb 	j	2fec <_vfprintf_r+0x2be4>
    2f60:	00000000 	nop
    2f64:	3c020001 	lui	v0,0x1
    2f68:	24424c84 	addiu	v0,v0,19588
    2f6c:	ae220000 	sw	v0,0(s1)
    2f70:	24020010 	li	v0,16
    2f74:	ae220004 	sw	v0,4(s1)
    2f78:	8fc200c0 	lw	v0,192(s8)
    2f7c:	00000000 	nop
    2f80:	24420010 	addiu	v0,v0,16
    2f84:	afc200c0 	sw	v0,192(s8)
    2f88:	26310008 	addiu	s1,s1,8
    2f8c:	8fc200bc 	lw	v0,188(s8)
    2f90:	00000000 	nop
    2f94:	24420001 	addiu	v0,v0,1
    2f98:	afc200bc 	sw	v0,188(s8)
    2f9c:	8fc200bc 	lw	v0,188(s8)
    2fa0:	00000000 	nop
    2fa4:	28420008 	slti	v0,v0,8
    2fa8:	1440000c 	bnez	v0,2fdc <_vfprintf_r+0x2bd4>
    2fac:	00000000 	nop
    2fb0:	27c200b8 	addiu	v0,s8,184
    2fb4:	8fc401f8 	lw	a0,504(s8)
    2fb8:	8fc501fc 	lw	a1,508(s8)
    2fbc:	00403021 	move	a2,v0
    2fc0:	0c00352b 	jal	d4ac <__sprint_r>
    2fc4:	00000000 	nop
    2fc8:	10400003 	beqz	v0,2fd8 <_vfprintf_r+0x2bd0>
    2fcc:	00000000 	nop
    2fd0:	08000da0 	j	3680 <_vfprintf_r+0x3278>
    2fd4:	00000000 	nop
    2fd8:	27d100c4 	addiu	s1,s8,196
    2fdc:	8fc20080 	lw	v0,128(s8)
    2fe0:	00000000 	nop
    2fe4:	2442fff0 	addiu	v0,v0,-16
    2fe8:	afc20080 	sw	v0,128(s8)
    2fec:	8fc20080 	lw	v0,128(s8)
    2ff0:	00000000 	nop
    2ff4:	28420011 	slti	v0,v0,17
    2ff8:	1040ffda 	beqz	v0,2f64 <_vfprintf_r+0x2b5c>
    2ffc:	00000000 	nop
    3000:	3c020001 	lui	v0,0x1
    3004:	24424c84 	addiu	v0,v0,19588
    3008:	ae220000 	sw	v0,0(s1)
    300c:	8fc20080 	lw	v0,128(s8)
    3010:	00000000 	nop
    3014:	ae220004 	sw	v0,4(s1)
    3018:	8fc300c0 	lw	v1,192(s8)
    301c:	8fc20080 	lw	v0,128(s8)
    3020:	00000000 	nop
    3024:	00621021 	addu	v0,v1,v0
    3028:	afc200c0 	sw	v0,192(s8)
    302c:	26310008 	addiu	s1,s1,8
    3030:	8fc200bc 	lw	v0,188(s8)
    3034:	00000000 	nop
    3038:	24420001 	addiu	v0,v0,1
    303c:	afc200bc 	sw	v0,188(s8)
    3040:	8fc200bc 	lw	v0,188(s8)
    3044:	00000000 	nop
    3048:	28420008 	slti	v0,v0,8
    304c:	1440000e 	bnez	v0,3088 <_vfprintf_r+0x2c80>
    3050:	00000000 	nop
    3054:	27c200b8 	addiu	v0,s8,184
    3058:	8fc401f8 	lw	a0,504(s8)
    305c:	8fc501fc 	lw	a1,508(s8)
    3060:	00403021 	move	a2,v0
    3064:	0c00352b 	jal	d4ac <__sprint_r>
    3068:	00000000 	nop
    306c:	10400003 	beqz	v0,307c <_vfprintf_r+0x2c74>
    3070:	00000000 	nop
    3074:	08000da0 	j	3680 <_vfprintf_r+0x3278>
    3078:	00000000 	nop
    307c:	27d100c4 	addiu	s1,s8,196
    3080:	08000d1d 	j	3474 <_vfprintf_r+0x306c>
    3084:	00000000 	nop
    3088:	08000d1d 	j	3474 <_vfprintf_r+0x306c>
    308c:	00000000 	nop
    3090:	8fc200b4 	lw	v0,180(s8)
    3094:	00000000 	nop
    3098:	28420002 	slti	v0,v0,2
    309c:	10400004 	beqz	v0,30b0 <_vfprintf_r+0x2ca8>
    30a0:	00000000 	nop
    30a4:	32620001 	andi	v0,s3,0x1
    30a8:	104000b7 	beqz	v0,3388 <_vfprintf_r+0x2f80>
    30ac:	00000000 	nop
    30b0:	ae320000 	sw	s2,0(s1)
    30b4:	24020001 	li	v0,1
    30b8:	ae220004 	sw	v0,4(s1)
    30bc:	8fc200c0 	lw	v0,192(s8)
    30c0:	00000000 	nop
    30c4:	24420001 	addiu	v0,v0,1
    30c8:	afc200c0 	sw	v0,192(s8)
    30cc:	26310008 	addiu	s1,s1,8
    30d0:	8fc200bc 	lw	v0,188(s8)
    30d4:	00000000 	nop
    30d8:	24420001 	addiu	v0,v0,1
    30dc:	afc200bc 	sw	v0,188(s8)
    30e0:	8fc200bc 	lw	v0,188(s8)
    30e4:	00000000 	nop
    30e8:	28420008 	slti	v0,v0,8
    30ec:	1440000c 	bnez	v0,3120 <_vfprintf_r+0x2d18>
    30f0:	00000000 	nop
    30f4:	27c200b8 	addiu	v0,s8,184
    30f8:	8fc401f8 	lw	a0,504(s8)
    30fc:	8fc501fc 	lw	a1,508(s8)
    3100:	00403021 	move	a2,v0
    3104:	0c00352b 	jal	d4ac <__sprint_r>
    3108:	00000000 	nop
    310c:	10400003 	beqz	v0,311c <_vfprintf_r+0x2d14>
    3110:	00000000 	nop
    3114:	08000da0 	j	3680 <_vfprintf_r+0x3278>
    3118:	00000000 	nop
    311c:	27d100c4 	addiu	s1,s8,196
    3120:	26520001 	addiu	s2,s2,1
    3124:	8fc20084 	lw	v0,132(s8)
    3128:	00000000 	nop
    312c:	ae220000 	sw	v0,0(s1)
    3130:	8fc20088 	lw	v0,136(s8)
    3134:	00000000 	nop
    3138:	ae220004 	sw	v0,4(s1)
    313c:	8fc200c0 	lw	v0,192(s8)
    3140:	00000000 	nop
    3144:	00401821 	move	v1,v0
    3148:	8fc20088 	lw	v0,136(s8)
    314c:	00000000 	nop
    3150:	00621021 	addu	v0,v1,v0
    3154:	afc200c0 	sw	v0,192(s8)
    3158:	26310008 	addiu	s1,s1,8
    315c:	8fc200bc 	lw	v0,188(s8)
    3160:	00000000 	nop
    3164:	24420001 	addiu	v0,v0,1
    3168:	afc200bc 	sw	v0,188(s8)
    316c:	8fc200bc 	lw	v0,188(s8)
    3170:	00000000 	nop
    3174:	28420008 	slti	v0,v0,8
    3178:	1440000c 	bnez	v0,31ac <_vfprintf_r+0x2da4>
    317c:	00000000 	nop
    3180:	27c200b8 	addiu	v0,s8,184
    3184:	8fc401f8 	lw	a0,504(s8)
    3188:	8fc501fc 	lw	a1,508(s8)
    318c:	00403021 	move	a2,v0
    3190:	0c00352b 	jal	d4ac <__sprint_r>
    3194:	00000000 	nop
    3198:	10400003 	beqz	v0,31a8 <_vfprintf_r+0x2da0>
    319c:	00000000 	nop
    31a0:	08000da0 	j	3680 <_vfprintf_r+0x3278>
    31a4:	00000000 	nop
    31a8:	27d100c4 	addiu	s1,s8,196
    31ac:	8fc300a4 	lw	v1,164(s8)
    31b0:	8fc200a0 	lw	v0,160(s8)
    31b4:	00602821 	move	a1,v1
    31b8:	00402021 	move	a0,v0
    31bc:	00003821 	move	a3,zero
    31c0:	00003021 	move	a2,zero
    31c4:	0c005002 	jal	14008 <__nedf2>
    31c8:	00000000 	nop
    31cc:	10400023 	beqz	v0,325c <_vfprintf_r+0x2e54>
    31d0:	00000000 	nop
    31d4:	ae320000 	sw	s2,0(s1)
    31d8:	8fc200b4 	lw	v0,180(s8)
    31dc:	00000000 	nop
    31e0:	2442ffff 	addiu	v0,v0,-1
    31e4:	ae220004 	sw	v0,4(s1)
    31e8:	8fc300c0 	lw	v1,192(s8)
    31ec:	8fc200b4 	lw	v0,180(s8)
    31f0:	00000000 	nop
    31f4:	2442ffff 	addiu	v0,v0,-1
    31f8:	00621021 	addu	v0,v1,v0
    31fc:	afc200c0 	sw	v0,192(s8)
    3200:	26310008 	addiu	s1,s1,8
    3204:	8fc200bc 	lw	v0,188(s8)
    3208:	00000000 	nop
    320c:	24420001 	addiu	v0,v0,1
    3210:	afc200bc 	sw	v0,188(s8)
    3214:	8fc200bc 	lw	v0,188(s8)
    3218:	00000000 	nop
    321c:	28420008 	slti	v0,v0,8
    3220:	14400057 	bnez	v0,3380 <_vfprintf_r+0x2f78>
    3224:	00000000 	nop
    3228:	27c200b8 	addiu	v0,s8,184
    322c:	8fc401f8 	lw	a0,504(s8)
    3230:	8fc501fc 	lw	a1,508(s8)
    3234:	00403021 	move	a2,v0
    3238:	0c00352b 	jal	d4ac <__sprint_r>
    323c:	00000000 	nop
    3240:	10400003 	beqz	v0,3250 <_vfprintf_r+0x2e48>
    3244:	00000000 	nop
    3248:	08000da0 	j	3680 <_vfprintf_r+0x3278>
    324c:	00000000 	nop
    3250:	27d100c4 	addiu	s1,s8,196
    3254:	08000cfe 	j	33f8 <_vfprintf_r+0x2ff0>
    3258:	00000000 	nop
    325c:	8fc200b4 	lw	v0,180(s8)
    3260:	00000000 	nop
    3264:	2450ffff 	addiu	s0,v0,-1
    3268:	1a000045 	blez	s0,3380 <_vfprintf_r+0x2f78>
    326c:	00000000 	nop
    3270:	08000cbd 	j	32f4 <_vfprintf_r+0x2eec>
    3274:	00000000 	nop
    3278:	3c020001 	lui	v0,0x1
    327c:	24424c84 	addiu	v0,v0,19588
    3280:	ae220000 	sw	v0,0(s1)
    3284:	24020010 	li	v0,16
    3288:	ae220004 	sw	v0,4(s1)
    328c:	8fc200c0 	lw	v0,192(s8)
    3290:	00000000 	nop
    3294:	24420010 	addiu	v0,v0,16
    3298:	afc200c0 	sw	v0,192(s8)
    329c:	26310008 	addiu	s1,s1,8
    32a0:	8fc200bc 	lw	v0,188(s8)
    32a4:	00000000 	nop
    32a8:	24420001 	addiu	v0,v0,1
    32ac:	afc200bc 	sw	v0,188(s8)
    32b0:	8fc200bc 	lw	v0,188(s8)
    32b4:	00000000 	nop
    32b8:	28420008 	slti	v0,v0,8
    32bc:	1440000c 	bnez	v0,32f0 <_vfprintf_r+0x2ee8>
    32c0:	00000000 	nop
    32c4:	27c200b8 	addiu	v0,s8,184
    32c8:	8fc401f8 	lw	a0,504(s8)
    32cc:	8fc501fc 	lw	a1,508(s8)
    32d0:	00403021 	move	a2,v0
    32d4:	0c00352b 	jal	d4ac <__sprint_r>
    32d8:	00000000 	nop
    32dc:	10400003 	beqz	v0,32ec <_vfprintf_r+0x2ee4>
    32e0:	00000000 	nop
    32e4:	08000da0 	j	3680 <_vfprintf_r+0x3278>
    32e8:	00000000 	nop
    32ec:	27d100c4 	addiu	s1,s8,196
    32f0:	2610fff0 	addiu	s0,s0,-16
    32f4:	2a020011 	slti	v0,s0,17
    32f8:	1040ffdf 	beqz	v0,3278 <_vfprintf_r+0x2e70>
    32fc:	00000000 	nop
    3300:	3c020001 	lui	v0,0x1
    3304:	24424c84 	addiu	v0,v0,19588
    3308:	ae220000 	sw	v0,0(s1)
    330c:	02001021 	move	v0,s0
    3310:	ae220004 	sw	v0,4(s1)
    3314:	8fc200c0 	lw	v0,192(s8)
    3318:	00000000 	nop
    331c:	00501021 	addu	v0,v0,s0
    3320:	afc200c0 	sw	v0,192(s8)
    3324:	26310008 	addiu	s1,s1,8
    3328:	8fc200bc 	lw	v0,188(s8)
    332c:	00000000 	nop
    3330:	24420001 	addiu	v0,v0,1
    3334:	afc200bc 	sw	v0,188(s8)
    3338:	8fc200bc 	lw	v0,188(s8)
    333c:	00000000 	nop
    3340:	28420008 	slti	v0,v0,8
    3344:	1440000e 	bnez	v0,3380 <_vfprintf_r+0x2f78>
    3348:	00000000 	nop
    334c:	27c200b8 	addiu	v0,s8,184
    3350:	8fc401f8 	lw	a0,504(s8)
    3354:	8fc501fc 	lw	a1,508(s8)
    3358:	00403021 	move	a2,v0
    335c:	0c00352b 	jal	d4ac <__sprint_r>
    3360:	00000000 	nop
    3364:	10400003 	beqz	v0,3374 <_vfprintf_r+0x2f6c>
    3368:	00000000 	nop
    336c:	08000da0 	j	3680 <_vfprintf_r+0x3278>
    3370:	00000000 	nop
    3374:	27d100c4 	addiu	s1,s8,196
    3378:	08000cfe 	j	33f8 <_vfprintf_r+0x2ff0>
    337c:	00000000 	nop
    3380:	08000cfe 	j	33f8 <_vfprintf_r+0x2ff0>
    3384:	00000000 	nop
    3388:	ae320000 	sw	s2,0(s1)
    338c:	24020001 	li	v0,1
    3390:	ae220004 	sw	v0,4(s1)
    3394:	8fc200c0 	lw	v0,192(s8)
    3398:	00000000 	nop
    339c:	24420001 	addiu	v0,v0,1
    33a0:	afc200c0 	sw	v0,192(s8)
    33a4:	26310008 	addiu	s1,s1,8
    33a8:	8fc200bc 	lw	v0,188(s8)
    33ac:	00000000 	nop
    33b0:	24420001 	addiu	v0,v0,1
    33b4:	afc200bc 	sw	v0,188(s8)
    33b8:	8fc200bc 	lw	v0,188(s8)
    33bc:	00000000 	nop
    33c0:	28420008 	slti	v0,v0,8
    33c4:	1440000c 	bnez	v0,33f8 <_vfprintf_r+0x2ff0>
    33c8:	00000000 	nop
    33cc:	27c200b8 	addiu	v0,s8,184
    33d0:	8fc401f8 	lw	a0,504(s8)
    33d4:	8fc501fc 	lw	a1,508(s8)
    33d8:	00403021 	move	a2,v0
    33dc:	0c00352b 	jal	d4ac <__sprint_r>
    33e0:	00000000 	nop
    33e4:	10400003 	beqz	v0,33f4 <_vfprintf_r+0x2fec>
    33e8:	00000000 	nop
    33ec:	08000da0 	j	3680 <_vfprintf_r+0x3278>
    33f0:	00000000 	nop
    33f4:	27d100c4 	addiu	s1,s8,196
    33f8:	27c200ac 	addiu	v0,s8,172
    33fc:	ae220000 	sw	v0,0(s1)
    3400:	8fc20048 	lw	v0,72(s8)
    3404:	00000000 	nop
    3408:	ae220004 	sw	v0,4(s1)
    340c:	8fc300c0 	lw	v1,192(s8)
    3410:	8fc20048 	lw	v0,72(s8)
    3414:	00000000 	nop
    3418:	00621021 	addu	v0,v1,v0
    341c:	afc200c0 	sw	v0,192(s8)
    3420:	26310008 	addiu	s1,s1,8
    3424:	8fc200bc 	lw	v0,188(s8)
    3428:	00000000 	nop
    342c:	24420001 	addiu	v0,v0,1
    3430:	afc200bc 	sw	v0,188(s8)
    3434:	8fc200bc 	lw	v0,188(s8)
    3438:	00000000 	nop
    343c:	28420008 	slti	v0,v0,8
    3440:	1440000c 	bnez	v0,3474 <_vfprintf_r+0x306c>
    3444:	00000000 	nop
    3448:	27c200b8 	addiu	v0,s8,184
    344c:	8fc401f8 	lw	a0,504(s8)
    3450:	8fc501fc 	lw	a1,508(s8)
    3454:	00403021 	move	a2,v0
    3458:	0c00352b 	jal	d4ac <__sprint_r>
    345c:	00000000 	nop
    3460:	10400003 	beqz	v0,3470 <_vfprintf_r+0x3068>
    3464:	00000000 	nop
    3468:	08000da0 	j	3680 <_vfprintf_r+0x3278>
    346c:	00000000 	nop
    3470:	27d100c4 	addiu	s1,s8,196
    3474:	32620004 	andi	v0,s3,0x4
    3478:	10400049 	beqz	v0,35a0 <_vfprintf_r+0x3198>
    347c:	00000000 	nop
    3480:	8fc30034 	lw	v1,52(s8)
    3484:	8fc20068 	lw	v0,104(s8)
    3488:	00000000 	nop
    348c:	00628023 	subu	s0,v1,v0
    3490:	1a000043 	blez	s0,35a0 <_vfprintf_r+0x3198>
    3494:	00000000 	nop
    3498:	08000d47 	j	351c <_vfprintf_r+0x3114>
    349c:	00000000 	nop
    34a0:	3c020001 	lui	v0,0x1
    34a4:	24424c74 	addiu	v0,v0,19572
    34a8:	ae220000 	sw	v0,0(s1)
    34ac:	24020010 	li	v0,16
    34b0:	ae220004 	sw	v0,4(s1)
    34b4:	8fc200c0 	lw	v0,192(s8)
    34b8:	00000000 	nop
    34bc:	24420010 	addiu	v0,v0,16
    34c0:	afc200c0 	sw	v0,192(s8)
    34c4:	26310008 	addiu	s1,s1,8
    34c8:	8fc200bc 	lw	v0,188(s8)
    34cc:	00000000 	nop
    34d0:	24420001 	addiu	v0,v0,1
    34d4:	afc200bc 	sw	v0,188(s8)
    34d8:	8fc200bc 	lw	v0,188(s8)
    34dc:	00000000 	nop
    34e0:	28420008 	slti	v0,v0,8
    34e4:	1440000c 	bnez	v0,3518 <_vfprintf_r+0x3110>
    34e8:	00000000 	nop
    34ec:	27c200b8 	addiu	v0,s8,184
    34f0:	8fc401f8 	lw	a0,504(s8)
    34f4:	8fc501fc 	lw	a1,508(s8)
    34f8:	00403021 	move	a2,v0
    34fc:	0c00352b 	jal	d4ac <__sprint_r>
    3500:	00000000 	nop
    3504:	10400003 	beqz	v0,3514 <_vfprintf_r+0x310c>
    3508:	00000000 	nop
    350c:	08000da0 	j	3680 <_vfprintf_r+0x3278>
    3510:	00000000 	nop
    3514:	27d100c4 	addiu	s1,s8,196
    3518:	2610fff0 	addiu	s0,s0,-16
    351c:	2a020011 	slti	v0,s0,17
    3520:	1040ffdf 	beqz	v0,34a0 <_vfprintf_r+0x3098>
    3524:	00000000 	nop
    3528:	3c020001 	lui	v0,0x1
    352c:	24424c74 	addiu	v0,v0,19572
    3530:	ae220000 	sw	v0,0(s1)
    3534:	02001021 	move	v0,s0
    3538:	ae220004 	sw	v0,4(s1)
    353c:	8fc200c0 	lw	v0,192(s8)
    3540:	00000000 	nop
    3544:	00501021 	addu	v0,v0,s0
    3548:	afc200c0 	sw	v0,192(s8)
    354c:	26310008 	addiu	s1,s1,8
    3550:	8fc200bc 	lw	v0,188(s8)
    3554:	00000000 	nop
    3558:	24420001 	addiu	v0,v0,1
    355c:	afc200bc 	sw	v0,188(s8)
    3560:	8fc200bc 	lw	v0,188(s8)
    3564:	00000000 	nop
    3568:	28420008 	slti	v0,v0,8
    356c:	1440000c 	bnez	v0,35a0 <_vfprintf_r+0x3198>
    3570:	00000000 	nop
    3574:	27c200b8 	addiu	v0,s8,184
    3578:	8fc401f8 	lw	a0,504(s8)
    357c:	8fc501fc 	lw	a1,508(s8)
    3580:	00403021 	move	a2,v0
    3584:	0c00352b 	jal	d4ac <__sprint_r>
    3588:	00000000 	nop
    358c:	10400003 	beqz	v0,359c <_vfprintf_r+0x3194>
    3590:	00000000 	nop
    3594:	08000da0 	j	3680 <_vfprintf_r+0x3278>
    3598:	00000000 	nop
    359c:	27d100c4 	addiu	s1,s8,196
    35a0:	8fc40034 	lw	a0,52(s8)
    35a4:	8fc30068 	lw	v1,104(s8)
    35a8:	00000000 	nop
    35ac:	0064102a 	slt	v0,v1,a0
    35b0:	10400002 	beqz	v0,35bc <_vfprintf_r+0x31b4>
    35b4:	00000000 	nop
    35b8:	00801821 	move	v1,a0
    35bc:	8fc20030 	lw	v0,48(s8)
    35c0:	00000000 	nop
    35c4:	00431021 	addu	v0,v0,v1
    35c8:	afc20030 	sw	v0,48(s8)
    35cc:	8fc200c0 	lw	v0,192(s8)
    35d0:	00000000 	nop
    35d4:	1040000b 	beqz	v0,3604 <_vfprintf_r+0x31fc>
    35d8:	00000000 	nop
    35dc:	27c200b8 	addiu	v0,s8,184
    35e0:	8fc401f8 	lw	a0,504(s8)
    35e4:	8fc501fc 	lw	a1,508(s8)
    35e8:	00403021 	move	a2,v0
    35ec:	0c00352b 	jal	d4ac <__sprint_r>
    35f0:	00000000 	nop
    35f4:	10400003 	beqz	v0,3604 <_vfprintf_r+0x31fc>
    35f8:	00000000 	nop
    35fc:	08000da0 	j	3680 <_vfprintf_r+0x3278>
    3600:	00000000 	nop
    3604:	afc000bc 	sw	zero,188(s8)
    3608:	27d100c4 	addiu	s1,s8,196
    360c:	8fc20074 	lw	v0,116(s8)
    3610:	00000000 	nop
    3614:	10400008 	beqz	v0,3638 <_vfprintf_r+0x3230>
    3618:	00000000 	nop
    361c:	8fc401f8 	lw	a0,504(s8)
    3620:	8fc50074 	lw	a1,116(s8)
    3624:	0c001d59 	jal	7564 <_free_r>
    3628:	00000000 	nop
    362c:	afc00074 	sw	zero,116(s8)
    3630:	0800017f 	j	5fc <_vfprintf_r+0x1f4>
    3634:	00000000 	nop
    3638:	0800017f 	j	5fc <_vfprintf_r+0x1f4>
    363c:	00000000 	nop
    3640:	8fc200c0 	lw	v0,192(s8)
    3644:	00000000 	nop
    3648:	1040000b 	beqz	v0,3678 <_vfprintf_r+0x3270>
    364c:	00000000 	nop
    3650:	27c200b8 	addiu	v0,s8,184
    3654:	8fc401f8 	lw	a0,504(s8)
    3658:	8fc501fc 	lw	a1,508(s8)
    365c:	00403021 	move	a2,v0
    3660:	0c00352b 	jal	d4ac <__sprint_r>
    3664:	00000000 	nop
    3668:	10400003 	beqz	v0,3678 <_vfprintf_r+0x3270>
    366c:	00000000 	nop
    3670:	08000da0 	j	3680 <_vfprintf_r+0x3278>
    3674:	00000000 	nop
    3678:	afc000bc 	sw	zero,188(s8)
    367c:	27d100c4 	addiu	s1,s8,196
    3680:	8fc20074 	lw	v0,116(s8)
    3684:	00000000 	nop
    3688:	10400005 	beqz	v0,36a0 <_vfprintf_r+0x3298>
    368c:	00000000 	nop
    3690:	8fc401f8 	lw	a0,504(s8)
    3694:	8fc50074 	lw	a1,116(s8)
    3698:	0c001d59 	jal	7564 <_free_r>
    369c:	00000000 	nop
    36a0:	8fc201fc 	lw	v0,508(s8)
    36a4:	00000000 	nop
    36a8:	8442000c 	lh	v0,12(v0)
    36ac:	00000000 	nop
    36b0:	3042ffff 	andi	v0,v0,0xffff
    36b4:	30420040 	andi	v0,v0,0x40
    36b8:	14400004 	bnez	v0,36cc <_vfprintf_r+0x32c4>
    36bc:	00000000 	nop
    36c0:	8fc20030 	lw	v0,48(s8)
    36c4:	08000db4 	j	36d0 <_vfprintf_r+0x32c8>
    36c8:	00000000 	nop
    36cc:	2402ffff 	li	v0,-1
    36d0:	03c0e821 	move	sp,s8
    36d4:	8fbf01f4 	lw	ra,500(sp)
    36d8:	8fbe01f0 	lw	s8,496(sp)
    36dc:	8fb701ec 	lw	s7,492(sp)
    36e0:	8fb601e8 	lw	s6,488(sp)
    36e4:	8fb501e4 	lw	s5,484(sp)
    36e8:	8fb401e0 	lw	s4,480(sp)
    36ec:	8fb301dc 	lw	s3,476(sp)
    36f0:	8fb201d8 	lw	s2,472(sp)
    36f4:	8fb101d4 	lw	s1,468(sp)
    36f8:	8fb001d0 	lw	s0,464(sp)
    36fc:	27bd01f8 	addiu	sp,sp,504
    3700:	03e00008 	jr	ra
    3704:	00000000 	nop

00003708 <cvt>:
    3708:	27bdffb0 	addiu	sp,sp,-80
    370c:	afbf004c 	sw	ra,76(sp)
    3710:	afbe0048 	sw	s8,72(sp)
    3714:	03a0f021 	move	s8,sp
    3718:	afc40050 	sw	a0,80(s8)
    371c:	afc7005c 	sw	a3,92(s8)
    3720:	afc60058 	sw	a2,88(s8)
    3724:	8fc3005c 	lw	v1,92(s8)
    3728:	8fc20058 	lw	v0,88(s8)
    372c:	afc30044 	sw	v1,68(s8)
    3730:	afc20040 	sw	v0,64(s8)
    3734:	8fc20040 	lw	v0,64(s8)
    3738:	00000000 	nop
    373c:	0441000d 	bgez	v0,3774 <cvt+0x6c>
    3740:	00000000 	nop
    3744:	8fc30058 	lw	v1,88(s8)
    3748:	3c028000 	lui	v0,0x8000
    374c:	00621026 	xor	v0,v1,v0
    3750:	afc20058 	sw	v0,88(s8)
    3754:	8fc2005c 	lw	v0,92(s8)
    3758:	00000000 	nop
    375c:	afc2005c 	sw	v0,92(s8)
    3760:	8fc20068 	lw	v0,104(s8)
    3764:	2403002d 	li	v1,45
    3768:	a0430000 	sb	v1,0(v0)
    376c:	08000de0 	j	3780 <cvt+0x78>
    3770:	00000000 	nop
    3774:	8fc20068 	lw	v0,104(s8)
    3778:	00000000 	nop
    377c:	a0400000 	sb	zero,0(v0)
    3780:	8fc30070 	lw	v1,112(s8)
    3784:	24020061 	li	v0,97
    3788:	10620005 	beq	v1,v0,37a0 <cvt+0x98>
    378c:	00000000 	nop
    3790:	8fc30070 	lw	v1,112(s8)
    3794:	24020041 	li	v0,65
    3798:	146200b5 	bne	v1,v0,3a70 <cvt+0x368>
    379c:	00000000 	nop
    37a0:	8fc5005c 	lw	a1,92(s8)
    37a4:	8fc40058 	lw	a0,88(s8)
    37a8:	8fc6006c 	lw	a2,108(s8)
    37ac:	0c0031fe 	jal	c7f8 <frexp>
    37b0:	00000000 	nop
    37b4:	00602821 	move	a1,v1
    37b8:	00402021 	move	a0,v0
    37bc:	8f878014 	lw	a3,-32748(gp)
    37c0:	8f868010 	lw	a2,-32752(gp)
    37c4:	0c004f61 	jal	13d84 <__divdf3>
    37c8:	00000000 	nop
    37cc:	afc3005c 	sw	v1,92(s8)
    37d0:	afc20058 	sw	v0,88(s8)
    37d4:	8fc5005c 	lw	a1,92(s8)
    37d8:	8fc40058 	lw	a0,88(s8)
    37dc:	00003821 	move	a3,zero
    37e0:	00003021 	move	a2,zero
    37e4:	0c004fe4 	jal	13f90 <__eqdf2>
    37e8:	00000000 	nop
    37ec:	14400004 	bnez	v0,3800 <cvt+0xf8>
    37f0:	00000000 	nop
    37f4:	8fc2006c 	lw	v0,108(s8)
    37f8:	24030001 	li	v1,1
    37fc:	ac430000 	sw	v1,0(v0)
    3800:	8fc30070 	lw	v1,112(s8)
    3804:	24020061 	li	v0,97
    3808:	14620005 	bne	v1,v0,3820 <cvt+0x118>
    380c:	00000000 	nop
    3810:	3c020001 	lui	v0,0x1
    3814:	24424ab8 	addiu	v0,v0,19128
    3818:	08000e0a 	j	3828 <cvt+0x120>
    381c:	00000000 	nop
    3820:	3c020001 	lui	v0,0x1
    3824:	24424ad4 	addiu	v0,v0,19156
    3828:	afc20030 	sw	v0,48(s8)
    382c:	8fc20078 	lw	v0,120(s8)
    3830:	00000000 	nop
    3834:	afc2002c 	sw	v0,44(s8)
    3838:	8fc5005c 	lw	a1,92(s8)
    383c:	8fc40058 	lw	a0,88(s8)
    3840:	8f87801c 	lw	a3,-32740(gp)
    3844:	8f868018 	lw	a2,-32744(gp)
    3848:	0c004ea6 	jal	13a98 <__muldf3>
    384c:	00000000 	nop
    3850:	afc3005c 	sw	v1,92(s8)
    3854:	afc20058 	sw	v0,88(s8)
    3858:	8fc5005c 	lw	a1,92(s8)
    385c:	8fc40058 	lw	a0,88(s8)
    3860:	0c0050b2 	jal	142c8 <__fixdfsi>
    3864:	00000000 	nop
    3868:	afc20028 	sw	v0,40(s8)
    386c:	8fc40028 	lw	a0,40(s8)
    3870:	0c00507a 	jal	141e8 <__floatsidf>
    3874:	00000000 	nop
    3878:	8fc5005c 	lw	a1,92(s8)
    387c:	8fc40058 	lw	a0,88(s8)
    3880:	00603821 	move	a3,v1
    3884:	00403021 	move	a2,v0
    3888:	0c004e8d 	jal	13a34 <__subdf3>
    388c:	00000000 	nop
    3890:	afc3005c 	sw	v1,92(s8)
    3894:	afc20058 	sw	v0,88(s8)
    3898:	8fc2002c 	lw	v0,44(s8)
    389c:	00000000 	nop
    38a0:	24430001 	addiu	v1,v0,1
    38a4:	afc3002c 	sw	v1,44(s8)
    38a8:	8fc30028 	lw	v1,40(s8)
    38ac:	8fc40030 	lw	a0,48(s8)
    38b0:	00000000 	nop
    38b4:	00831821 	addu	v1,a0,v1
    38b8:	80630000 	lb	v1,0(v1)
    38bc:	00000000 	nop
    38c0:	a0430000 	sb	v1,0(v0)
    38c4:	8fc20060 	lw	v0,96(s8)
    38c8:	00000000 	nop
    38cc:	2443ffff 	addiu	v1,v0,-1
    38d0:	afc30060 	sw	v1,96(s8)
    38d4:	10400009 	beqz	v0,38fc <cvt+0x1f4>
    38d8:	00000000 	nop
    38dc:	8fc5005c 	lw	a1,92(s8)
    38e0:	8fc40058 	lw	a0,88(s8)
    38e4:	00003821 	move	a3,zero
    38e8:	00003021 	move	a2,zero
    38ec:	0c005002 	jal	14008 <__nedf2>
    38f0:	00000000 	nop
    38f4:	1440ffd0 	bnez	v0,3838 <cvt+0x130>
    38f8:	00000000 	nop
    38fc:	8fc5005c 	lw	a1,92(s8)
    3900:	8fc40058 	lw	a0,88(s8)
    3904:	8f878024 	lw	a3,-32732(gp)
    3908:	8f868020 	lw	a2,-32736(gp)
    390c:	0c005020 	jal	14080 <__gtdf2>
    3910:	00000000 	nop
    3914:	1c400010 	bgtz	v0,3958 <cvt+0x250>
    3918:	00000000 	nop
    391c:	8fc5005c 	lw	a1,92(s8)
    3920:	8fc40058 	lw	a0,88(s8)
    3924:	8f878024 	lw	a3,-32732(gp)
    3928:	8f868020 	lw	a2,-32736(gp)
    392c:	0c004fe4 	jal	13f90 <__eqdf2>
    3930:	00000000 	nop
    3934:	10400003 	beqz	v0,3944 <cvt+0x23c>
    3938:	00000000 	nop
    393c:	08000e8c 	j	3a30 <cvt+0x328>
    3940:	00000000 	nop
    3944:	8fc20028 	lw	v0,40(s8)
    3948:	00000000 	nop
    394c:	30420001 	andi	v0,v0,0x1
    3950:	1040002f 	beqz	v0,3a10 <cvt+0x308>
    3954:	00000000 	nop
    3958:	8fc2002c 	lw	v0,44(s8)
    395c:	00000000 	nop
    3960:	afc20038 	sw	v0,56(s8)
    3964:	08000e5e 	j	3978 <cvt+0x270>
    3968:	00000000 	nop
    396c:	8fc20038 	lw	v0,56(s8)
    3970:	24030030 	li	v1,48
    3974:	a0430000 	sb	v1,0(v0)
    3978:	8fc20038 	lw	v0,56(s8)
    397c:	00000000 	nop
    3980:	2442ffff 	addiu	v0,v0,-1
    3984:	afc20038 	sw	v0,56(s8)
    3988:	8fc20038 	lw	v0,56(s8)
    398c:	00000000 	nop
    3990:	80430000 	lb	v1,0(v0)
    3994:	8fc20030 	lw	v0,48(s8)
    3998:	00000000 	nop
    399c:	2442000f 	addiu	v0,v0,15
    39a0:	80420000 	lb	v0,0(v0)
    39a4:	00000000 	nop
    39a8:	1062fff0 	beq	v1,v0,396c <cvt+0x264>
    39ac:	00000000 	nop
    39b0:	8fc30038 	lw	v1,56(s8)
    39b4:	8fc20038 	lw	v0,56(s8)
    39b8:	00000000 	nop
    39bc:	80440000 	lb	a0,0(v0)
    39c0:	24020039 	li	v0,57
    39c4:	14820006 	bne	a0,v0,39e0 <cvt+0x2d8>
    39c8:	00000000 	nop
    39cc:	8fc20030 	lw	v0,48(s8)
    39d0:	00000000 	nop
    39d4:	8042000a 	lb	v0,10(v0)
    39d8:	08000e81 	j	3a04 <cvt+0x2fc>
    39dc:	00000000 	nop
    39e0:	8fc20038 	lw	v0,56(s8)
    39e4:	00000000 	nop
    39e8:	80420000 	lb	v0,0(v0)
    39ec:	00000000 	nop
    39f0:	304200ff 	andi	v0,v0,0xff
    39f4:	24420001 	addiu	v0,v0,1
    39f8:	304200ff 	andi	v0,v0,0xff
    39fc:	00021600 	sll	v0,v0,0x18
    3a00:	00021603 	sra	v0,v0,0x18
    3a04:	a0620000 	sb	v0,0(v1)
    3a08:	08000e92 	j	3a48 <cvt+0x340>
    3a0c:	00000000 	nop
    3a10:	08000e8c 	j	3a30 <cvt+0x328>
    3a14:	00000000 	nop
    3a18:	8fc2002c 	lw	v0,44(s8)
    3a1c:	00000000 	nop
    3a20:	24430001 	addiu	v1,v0,1
    3a24:	afc3002c 	sw	v1,44(s8)
    3a28:	24030030 	li	v1,48
    3a2c:	a0430000 	sb	v1,0(v0)
    3a30:	8fc20060 	lw	v0,96(s8)
    3a34:	00000000 	nop
    3a38:	2443ffff 	addiu	v1,v0,-1
    3a3c:	afc30060 	sw	v1,96(s8)
    3a40:	0441fff5 	bgez	v0,3a18 <cvt+0x310>
    3a44:	00000000 	nop
    3a48:	8fc3002c 	lw	v1,44(s8)
    3a4c:	8fc20078 	lw	v0,120(s8)
    3a50:	00000000 	nop
    3a54:	00621823 	subu	v1,v1,v0
    3a58:	8fc20074 	lw	v0,116(s8)
    3a5c:	00000000 	nop
    3a60:	ac430000 	sw	v1,0(v0)
    3a64:	8fc20078 	lw	v0,120(s8)
    3a68:	08000f24 	j	3c90 <cvt+0x588>
    3a6c:	00000000 	nop
    3a70:	8fc30070 	lw	v1,112(s8)
    3a74:	24020066 	li	v0,102
    3a78:	10620005 	beq	v1,v0,3a90 <cvt+0x388>
    3a7c:	00000000 	nop
    3a80:	8fc30070 	lw	v1,112(s8)
    3a84:	24020046 	li	v0,70
    3a88:	14620005 	bne	v1,v0,3aa0 <cvt+0x398>
    3a8c:	00000000 	nop
    3a90:	24020003 	li	v0,3
    3a94:	afc20028 	sw	v0,40(s8)
    3a98:	08000eb6 	j	3ad8 <cvt+0x3d0>
    3a9c:	00000000 	nop
    3aa0:	8fc30070 	lw	v1,112(s8)
    3aa4:	24020065 	li	v0,101
    3aa8:	10620005 	beq	v1,v0,3ac0 <cvt+0x3b8>
    3aac:	00000000 	nop
    3ab0:	8fc30070 	lw	v1,112(s8)
    3ab4:	24020045 	li	v0,69
    3ab8:	14620005 	bne	v1,v0,3ad0 <cvt+0x3c8>
    3abc:	00000000 	nop
    3ac0:	8fc20060 	lw	v0,96(s8)
    3ac4:	00000000 	nop
    3ac8:	24420001 	addiu	v0,v0,1
    3acc:	afc20060 	sw	v0,96(s8)
    3ad0:	24020002 	li	v0,2
    3ad4:	afc20028 	sw	v0,40(s8)
    3ad8:	8fc20028 	lw	v0,40(s8)
    3adc:	00000000 	nop
    3ae0:	afa20010 	sw	v0,16(sp)
    3ae4:	8fc20060 	lw	v0,96(s8)
    3ae8:	00000000 	nop
    3aec:	afa20014 	sw	v0,20(sp)
    3af0:	8fc2006c 	lw	v0,108(s8)
    3af4:	00000000 	nop
    3af8:	afa20018 	sw	v0,24(sp)
    3afc:	27c20034 	addiu	v0,s8,52
    3b00:	afa2001c 	sw	v0,28(sp)
    3b04:	27c20038 	addiu	v0,s8,56
    3b08:	afa20020 	sw	v0,32(sp)
    3b0c:	8fc40050 	lw	a0,80(s8)
    3b10:	8fc7005c 	lw	a3,92(s8)
    3b14:	8fc60058 	lw	a2,88(s8)
    3b18:	0c0011a9 	jal	46a4 <_dtoa_r>
    3b1c:	00000000 	nop
    3b20:	afc20030 	sw	v0,48(s8)
    3b24:	8fc30070 	lw	v1,112(s8)
    3b28:	24020067 	li	v0,103
    3b2c:	10620005 	beq	v1,v0,3b44 <cvt+0x43c>
    3b30:	00000000 	nop
    3b34:	8fc30070 	lw	v1,112(s8)
    3b38:	24020047 	li	v0,71
    3b3c:	14620006 	bne	v1,v0,3b58 <cvt+0x450>
    3b40:	00000000 	nop
    3b44:	8fc20064 	lw	v0,100(s8)
    3b48:	00000000 	nop
    3b4c:	30420001 	andi	v0,v0,0x1
    3b50:	10400045 	beqz	v0,3c68 <cvt+0x560>
    3b54:	00000000 	nop
    3b58:	8fc20060 	lw	v0,96(s8)
    3b5c:	8fc30030 	lw	v1,48(s8)
    3b60:	00000000 	nop
    3b64:	00621021 	addu	v0,v1,v0
    3b68:	afc2002c 	sw	v0,44(s8)
    3b6c:	8fc30070 	lw	v1,112(s8)
    3b70:	24020066 	li	v0,102
    3b74:	10620005 	beq	v1,v0,3b8c <cvt+0x484>
    3b78:	00000000 	nop
    3b7c:	8fc30070 	lw	v1,112(s8)
    3b80:	24020046 	li	v0,70
    3b84:	1462001d 	bne	v1,v0,3bfc <cvt+0x4f4>
    3b88:	00000000 	nop
    3b8c:	8fc20030 	lw	v0,48(s8)
    3b90:	00000000 	nop
    3b94:	80430000 	lb	v1,0(v0)
    3b98:	24020030 	li	v0,48
    3b9c:	14620010 	bne	v1,v0,3be0 <cvt+0x4d8>
    3ba0:	00000000 	nop
    3ba4:	8fc5005c 	lw	a1,92(s8)
    3ba8:	8fc40058 	lw	a0,88(s8)
    3bac:	00003821 	move	a3,zero
    3bb0:	00003021 	move	a2,zero
    3bb4:	0c005002 	jal	14008 <__nedf2>
    3bb8:	00000000 	nop
    3bbc:	10400008 	beqz	v0,3be0 <cvt+0x4d8>
    3bc0:	00000000 	nop
    3bc4:	24030001 	li	v1,1
    3bc8:	8fc20060 	lw	v0,96(s8)
    3bcc:	00000000 	nop
    3bd0:	00621823 	subu	v1,v1,v0
    3bd4:	8fc2006c 	lw	v0,108(s8)
    3bd8:	00000000 	nop
    3bdc:	ac430000 	sw	v1,0(v0)
    3be0:	8fc2006c 	lw	v0,108(s8)
    3be4:	00000000 	nop
    3be8:	8c420000 	lw	v0,0(v0)
    3bec:	8fc3002c 	lw	v1,44(s8)
    3bf0:	00000000 	nop
    3bf4:	00621021 	addu	v0,v1,v0
    3bf8:	afc2002c 	sw	v0,44(s8)
    3bfc:	8fc5005c 	lw	a1,92(s8)
    3c00:	8fc40058 	lw	a0,88(s8)
    3c04:	00003821 	move	a3,zero
    3c08:	00003021 	move	a2,zero
    3c0c:	0c004fe4 	jal	13f90 <__eqdf2>
    3c10:	00000000 	nop
    3c14:	10400003 	beqz	v0,3c24 <cvt+0x51c>
    3c18:	00000000 	nop
    3c1c:	08000f14 	j	3c50 <cvt+0x548>
    3c20:	00000000 	nop
    3c24:	8fc2002c 	lw	v0,44(s8)
    3c28:	00000000 	nop
    3c2c:	afc20038 	sw	v0,56(s8)
    3c30:	08000f14 	j	3c50 <cvt+0x548>
    3c34:	00000000 	nop
    3c38:	8fc20038 	lw	v0,56(s8)
    3c3c:	00000000 	nop
    3c40:	24430001 	addiu	v1,v0,1
    3c44:	afc30038 	sw	v1,56(s8)
    3c48:	24030030 	li	v1,48
    3c4c:	a0430000 	sb	v1,0(v0)
    3c50:	8fc30038 	lw	v1,56(s8)
    3c54:	8fc2002c 	lw	v0,44(s8)
    3c58:	00000000 	nop
    3c5c:	0062102b 	sltu	v0,v1,v0
    3c60:	1440fff5 	bnez	v0,3c38 <cvt+0x530>
    3c64:	00000000 	nop
    3c68:	8fc20038 	lw	v0,56(s8)
    3c6c:	00000000 	nop
    3c70:	00401821 	move	v1,v0
    3c74:	8fc20030 	lw	v0,48(s8)
    3c78:	00000000 	nop
    3c7c:	00621823 	subu	v1,v1,v0
    3c80:	8fc20074 	lw	v0,116(s8)
    3c84:	00000000 	nop
    3c88:	ac430000 	sw	v1,0(v0)
    3c8c:	8fc20030 	lw	v0,48(s8)
    3c90:	03c0e821 	move	sp,s8
    3c94:	8fbf004c 	lw	ra,76(sp)
    3c98:	8fbe0048 	lw	s8,72(sp)
    3c9c:	27bd0050 	addiu	sp,sp,80
    3ca0:	03e00008 	jr	ra
    3ca4:	00000000 	nop

00003ca8 <exponent>:
    3ca8:	27bdffe0 	addiu	sp,sp,-32
    3cac:	afbe001c 	sw	s8,28(sp)
    3cb0:	afb10018 	sw	s1,24(sp)
    3cb4:	afb00014 	sw	s0,20(sp)
    3cb8:	03a0f021 	move	s8,sp
    3cbc:	afc40020 	sw	a0,32(s8)
    3cc0:	afc50024 	sw	a1,36(s8)
    3cc4:	afc60028 	sw	a2,40(s8)
    3cc8:	8fc30028 	lw	v1,40(s8)
    3ccc:	24020061 	li	v0,97
    3cd0:	10620005 	beq	v1,v0,3ce8 <exponent+0x40>
    3cd4:	00000000 	nop
    3cd8:	8fc30028 	lw	v1,40(s8)
    3cdc:	24020041 	li	v0,65
    3ce0:	14620004 	bne	v1,v0,3cf4 <exponent+0x4c>
    3ce4:	00000000 	nop
    3ce8:	24020001 	li	v0,1
    3cec:	08000f3e 	j	3cf8 <exponent+0x50>
    3cf0:	00000000 	nop
    3cf4:	00001021 	move	v0,zero
    3cf8:	afc20000 	sw	v0,0(s8)
    3cfc:	8fd00020 	lw	s0,32(s8)
    3d00:	00000000 	nop
    3d04:	02001021 	move	v0,s0
    3d08:	24500001 	addiu	s0,v0,1
    3d0c:	8fc30000 	lw	v1,0(s8)
    3d10:	00000000 	nop
    3d14:	1060000a 	beqz	v1,3d40 <exponent+0x98>
    3d18:	00000000 	nop
    3d1c:	8fc30028 	lw	v1,40(s8)
    3d20:	00000000 	nop
    3d24:	306300ff 	andi	v1,v1,0xff
    3d28:	2463000f 	addiu	v1,v1,15
    3d2c:	306300ff 	andi	v1,v1,0xff
    3d30:	00031e00 	sll	v1,v1,0x18
    3d34:	00031e03 	sra	v1,v1,0x18
    3d38:	08000f54 	j	3d50 <exponent+0xa8>
    3d3c:	00000000 	nop
    3d40:	8fc30028 	lw	v1,40(s8)
    3d44:	00000000 	nop
    3d48:	00031e00 	sll	v1,v1,0x18
    3d4c:	00031e03 	sra	v1,v1,0x18
    3d50:	a0430000 	sb	v1,0(v0)
    3d54:	8fc20024 	lw	v0,36(s8)
    3d58:	00000000 	nop
    3d5c:	0441000b 	bgez	v0,3d8c <exponent+0xe4>
    3d60:	00000000 	nop
    3d64:	8fc20024 	lw	v0,36(s8)
    3d68:	00000000 	nop
    3d6c:	00021023 	negu	v0,v0
    3d70:	afc20024 	sw	v0,36(s8)
    3d74:	02001021 	move	v0,s0
    3d78:	24500001 	addiu	s0,v0,1
    3d7c:	2403002d 	li	v1,45
    3d80:	a0430000 	sb	v1,0(v0)
    3d84:	08000f67 	j	3d9c <exponent+0xf4>
    3d88:	00000000 	nop
    3d8c:	02001021 	move	v0,s0
    3d90:	24500001 	addiu	s0,v0,1
    3d94:	2403002b 	li	v1,43
    3d98:	a0430000 	sb	v1,0(v0)
    3d9c:	27d10004 	addiu	s1,s8,4
    3da0:	26310007 	addiu	s1,s1,7
    3da4:	8fc20024 	lw	v0,36(s8)
    3da8:	00000000 	nop
    3dac:	2842000a 	slti	v0,v0,10
    3db0:	14400034 	bnez	v0,3e84 <exponent+0x1dc>
    3db4:	00000000 	nop
    3db8:	2631ffff 	addiu	s1,s1,-1
    3dbc:	8fc30024 	lw	v1,36(s8)
    3dc0:	2402000a 	li	v0,10
    3dc4:	14400002 	bnez	v0,3dd0 <exponent+0x128>
    3dc8:	0062001a 	div	zero,v1,v0
    3dcc:	0007000d 	break	0x7
    3dd0:	00001010 	mfhi	v0
    3dd4:	304200ff 	andi	v0,v0,0xff
    3dd8:	24420030 	addiu	v0,v0,48
    3ddc:	304200ff 	andi	v0,v0,0xff
    3de0:	00021600 	sll	v0,v0,0x18
    3de4:	00021603 	sra	v0,v0,0x18
    3de8:	a2220000 	sb	v0,0(s1)
    3dec:	8fc30024 	lw	v1,36(s8)
    3df0:	2402000a 	li	v0,10
    3df4:	14400002 	bnez	v0,3e00 <exponent+0x158>
    3df8:	0062001a 	div	zero,v1,v0
    3dfc:	0007000d 	break	0x7
    3e00:	00001810 	mfhi	v1
    3e04:	00001012 	mflo	v0
    3e08:	afc20024 	sw	v0,36(s8)
    3e0c:	8fc20024 	lw	v0,36(s8)
    3e10:	00000000 	nop
    3e14:	2842000a 	slti	v0,v0,10
    3e18:	1040ffe7 	beqz	v0,3db8 <exponent+0x110>
    3e1c:	00000000 	nop
    3e20:	2631ffff 	addiu	s1,s1,-1
    3e24:	8fc20024 	lw	v0,36(s8)
    3e28:	00000000 	nop
    3e2c:	304200ff 	andi	v0,v0,0xff
    3e30:	24420030 	addiu	v0,v0,48
    3e34:	304200ff 	andi	v0,v0,0xff
    3e38:	00021600 	sll	v0,v0,0x18
    3e3c:	00021603 	sra	v0,v0,0x18
    3e40:	a2220000 	sb	v0,0(s1)
    3e44:	08000f9a 	j	3e68 <exponent+0x1c0>
    3e48:	00000000 	nop
    3e4c:	02001021 	move	v0,s0
    3e50:	24500001 	addiu	s0,v0,1
    3e54:	02201821 	move	v1,s1
    3e58:	24710001 	addiu	s1,v1,1
    3e5c:	80630000 	lb	v1,0(v1)
    3e60:	00000000 	nop
    3e64:	a0430000 	sb	v1,0(v0)
    3e68:	27c20004 	addiu	v0,s8,4
    3e6c:	24420007 	addiu	v0,v0,7
    3e70:	0222102b 	sltu	v0,s1,v0
    3e74:	1440fff5 	bnez	v0,3e4c <exponent+0x1a4>
    3e78:	00000000 	nop
    3e7c:	08000fb3 	j	3ecc <exponent+0x224>
    3e80:	00000000 	nop
    3e84:	8fc20000 	lw	v0,0(s8)
    3e88:	00000000 	nop
    3e8c:	14400005 	bnez	v0,3ea4 <exponent+0x1fc>
    3e90:	00000000 	nop
    3e94:	02001021 	move	v0,s0
    3e98:	24500001 	addiu	s0,v0,1
    3e9c:	24030030 	li	v1,48
    3ea0:	a0430000 	sb	v1,0(v0)
    3ea4:	02001021 	move	v0,s0
    3ea8:	24500001 	addiu	s0,v0,1
    3eac:	8fc30024 	lw	v1,36(s8)
    3eb0:	00000000 	nop
    3eb4:	306300ff 	andi	v1,v1,0xff
    3eb8:	24630030 	addiu	v1,v1,48
    3ebc:	306300ff 	andi	v1,v1,0xff
    3ec0:	00031e00 	sll	v1,v1,0x18
    3ec4:	00031e03 	sra	v1,v1,0x18
    3ec8:	a0430000 	sb	v1,0(v0)
    3ecc:	02001821 	move	v1,s0
    3ed0:	8fc20020 	lw	v0,32(s8)
    3ed4:	00000000 	nop
    3ed8:	00621023 	subu	v0,v1,v0
    3edc:	03c0e821 	move	sp,s8
    3ee0:	8fbe001c 	lw	s8,28(sp)
    3ee4:	8fb10018 	lw	s1,24(sp)
    3ee8:	8fb00014 	lw	s0,20(sp)
    3eec:	27bd0020 	addiu	sp,sp,32
    3ef0:	03e00008 	jr	ra
    3ef4:	00000000 	nop

00003ef8 <__swsetup_r>:
    3ef8:	27bdffe0 	addiu	sp,sp,-32
    3efc:	afbf001c 	sw	ra,28(sp)
    3f00:	afbe0018 	sw	s8,24(sp)
    3f04:	afb00014 	sw	s0,20(sp)
    3f08:	03a0f021 	move	s8,sp
    3f0c:	afc40020 	sw	a0,32(s8)
    3f10:	00a08021 	move	s0,a1
    3f14:	8f828070 	lw	v0,-32656(gp)
    3f18:	00000000 	nop
    3f1c:	1040000c 	beqz	v0,3f50 <__swsetup_r+0x58>
    3f20:	00000000 	nop
    3f24:	8f828070 	lw	v0,-32656(gp)
    3f28:	00000000 	nop
    3f2c:	8c420038 	lw	v0,56(v0)
    3f30:	00000000 	nop
    3f34:	14400006 	bnez	v0,3f50 <__swsetup_r+0x58>
    3f38:	00000000 	nop
    3f3c:	8f828070 	lw	v0,-32656(gp)
    3f40:	00000000 	nop
    3f44:	00402021 	move	a0,v0
    3f48:	0c001cb5 	jal	72d4 <__sinit>
    3f4c:	00000000 	nop
    3f50:	8602000c 	lh	v0,12(s0)
    3f54:	00000000 	nop
    3f58:	3042ffff 	andi	v0,v0,0xffff
    3f5c:	30420008 	andi	v0,v0,0x8
    3f60:	14400037 	bnez	v0,4040 <__swsetup_r+0x148>
    3f64:	00000000 	nop
    3f68:	8602000c 	lh	v0,12(s0)
    3f6c:	00000000 	nop
    3f70:	3042ffff 	andi	v0,v0,0xffff
    3f74:	30420010 	andi	v0,v0,0x10
    3f78:	1440000d 	bnez	v0,3fb0 <__swsetup_r+0xb8>
    3f7c:	00000000 	nop
    3f80:	8fc20020 	lw	v0,32(s8)
    3f84:	24030009 	li	v1,9
    3f88:	ac430000 	sw	v1,0(v0)
    3f8c:	8602000c 	lh	v0,12(s0)
    3f90:	00000000 	nop
    3f94:	34420040 	ori	v0,v0,0x40
    3f98:	00021400 	sll	v0,v0,0x10
    3f9c:	00021403 	sra	v0,v0,0x10
    3fa0:	a602000c 	sh	v0,12(s0)
    3fa4:	2402ffff 	li	v0,-1
    3fa8:	08001050 	j	4140 <__swsetup_r+0x248>
    3fac:	00000000 	nop
    3fb0:	8602000c 	lh	v0,12(s0)
    3fb4:	00000000 	nop
    3fb8:	3042ffff 	andi	v0,v0,0xffff
    3fbc:	30420004 	andi	v0,v0,0x4
    3fc0:	10400019 	beqz	v0,4028 <__swsetup_r+0x130>
    3fc4:	00000000 	nop
    3fc8:	8e020030 	lw	v0,48(s0)
    3fcc:	00000000 	nop
    3fd0:	1040000b 	beqz	v0,4000 <__swsetup_r+0x108>
    3fd4:	00000000 	nop
    3fd8:	8e030030 	lw	v1,48(s0)
    3fdc:	26020040 	addiu	v0,s0,64
    3fe0:	10620006 	beq	v1,v0,3ffc <__swsetup_r+0x104>
    3fe4:	00000000 	nop
    3fe8:	8e020030 	lw	v0,48(s0)
    3fec:	8fc40020 	lw	a0,32(s8)
    3ff0:	00402821 	move	a1,v0
    3ff4:	0c001d59 	jal	7564 <_free_r>
    3ff8:	00000000 	nop
    3ffc:	ae000030 	sw	zero,48(s0)
    4000:	8603000c 	lh	v1,12(s0)
    4004:	2402ffdb 	li	v0,-37
    4008:	00621024 	and	v0,v1,v0
    400c:	00021400 	sll	v0,v0,0x10
    4010:	00021403 	sra	v0,v0,0x10
    4014:	a602000c 	sh	v0,12(s0)
    4018:	ae000004 	sw	zero,4(s0)
    401c:	8e020010 	lw	v0,16(s0)
    4020:	00000000 	nop
    4024:	ae020000 	sw	v0,0(s0)
    4028:	8602000c 	lh	v0,12(s0)
    402c:	00000000 	nop
    4030:	34420008 	ori	v0,v0,0x8
    4034:	00021400 	sll	v0,v0,0x10
    4038:	00021403 	sra	v0,v0,0x10
    403c:	a602000c 	sh	v0,12(s0)
    4040:	8e020010 	lw	v0,16(s0)
    4044:	00000000 	nop
    4048:	14400011 	bnez	v0,4090 <__swsetup_r+0x198>
    404c:	00000000 	nop
    4050:	8602000c 	lh	v0,12(s0)
    4054:	00000000 	nop
    4058:	3042ffff 	andi	v0,v0,0xffff
    405c:	30420200 	andi	v0,v0,0x200
    4060:	10400007 	beqz	v0,4080 <__swsetup_r+0x188>
    4064:	00000000 	nop
    4068:	8602000c 	lh	v0,12(s0)
    406c:	00000000 	nop
    4070:	3042ffff 	andi	v0,v0,0xffff
    4074:	30420080 	andi	v0,v0,0x80
    4078:	10400005 	beqz	v0,4090 <__swsetup_r+0x198>
    407c:	00000000 	nop
    4080:	8fc40020 	lw	a0,32(s8)
    4084:	02002821 	move	a1,s0
    4088:	0c0020c3 	jal	830c <__smakebuf_r>
    408c:	00000000 	nop
    4090:	8602000c 	lh	v0,12(s0)
    4094:	00000000 	nop
    4098:	3042ffff 	andi	v0,v0,0xffff
    409c:	30420001 	andi	v0,v0,0x1
    40a0:	10400008 	beqz	v0,40c4 <__swsetup_r+0x1cc>
    40a4:	00000000 	nop
    40a8:	ae000008 	sw	zero,8(s0)
    40ac:	8e020014 	lw	v0,20(s0)
    40b0:	00000000 	nop
    40b4:	00021023 	negu	v0,v0
    40b8:	ae020018 	sw	v0,24(s0)
    40bc:	0800103c 	j	40f0 <__swsetup_r+0x1f8>
    40c0:	00000000 	nop
    40c4:	8602000c 	lh	v0,12(s0)
    40c8:	00000000 	nop
    40cc:	3042ffff 	andi	v0,v0,0xffff
    40d0:	30420002 	andi	v0,v0,0x2
    40d4:	14400004 	bnez	v0,40e8 <__swsetup_r+0x1f0>
    40d8:	00000000 	nop
    40dc:	8e020014 	lw	v0,20(s0)
    40e0:	0800103b 	j	40ec <__swsetup_r+0x1f4>
    40e4:	00000000 	nop
    40e8:	00001021 	move	v0,zero
    40ec:	ae020008 	sw	v0,8(s0)
    40f0:	8e020010 	lw	v0,16(s0)
    40f4:	00000000 	nop
    40f8:	14400010 	bnez	v0,413c <__swsetup_r+0x244>
    40fc:	00000000 	nop
    4100:	8602000c 	lh	v0,12(s0)
    4104:	00000000 	nop
    4108:	3042ffff 	andi	v0,v0,0xffff
    410c:	30420080 	andi	v0,v0,0x80
    4110:	1040000a 	beqz	v0,413c <__swsetup_r+0x244>
    4114:	00000000 	nop
    4118:	8602000c 	lh	v0,12(s0)
    411c:	00000000 	nop
    4120:	34420040 	ori	v0,v0,0x40
    4124:	00021400 	sll	v0,v0,0x10
    4128:	00021403 	sra	v0,v0,0x10
    412c:	a602000c 	sh	v0,12(s0)
    4130:	2402ffff 	li	v0,-1
    4134:	08001050 	j	4140 <__swsetup_r+0x248>
    4138:	00000000 	nop
    413c:	00001021 	move	v0,zero
    4140:	03c0e821 	move	sp,s8
    4144:	8fbf001c 	lw	ra,28(sp)
    4148:	8fbe0018 	lw	s8,24(sp)
    414c:	8fb00014 	lw	s0,20(sp)
    4150:	27bd0020 	addiu	sp,sp,32
    4154:	03e00008 	jr	ra
    4158:	00000000 	nop

0000415c <quorem>:
    415c:	27bdffb0 	addiu	sp,sp,-80
    4160:	afbf004c 	sw	ra,76(sp)
    4164:	afbe0048 	sw	s8,72(sp)
    4168:	03a0f021 	move	s8,sp
    416c:	afc40050 	sw	a0,80(s8)
    4170:	afc50054 	sw	a1,84(s8)
    4174:	8fc20054 	lw	v0,84(s8)
    4178:	00000000 	nop
    417c:	8c420010 	lw	v0,16(v0)
    4180:	00000000 	nop
    4184:	afc20010 	sw	v0,16(s8)
    4188:	8fc20050 	lw	v0,80(s8)
    418c:	00000000 	nop
    4190:	8c430010 	lw	v1,16(v0)
    4194:	8fc20010 	lw	v0,16(s8)
    4198:	00000000 	nop
    419c:	0062102a 	slt	v0,v1,v0
    41a0:	10400004 	beqz	v0,41b4 <quorem+0x58>
    41a4:	00000000 	nop
    41a8:	00001021 	move	v0,zero
    41ac:	080011a3 	j	468c <quorem+0x530>
    41b0:	00000000 	nop
    41b4:	8fc20054 	lw	v0,84(s8)
    41b8:	00000000 	nop
    41bc:	24420014 	addiu	v0,v0,20
    41c0:	afc20028 	sw	v0,40(s8)
    41c4:	8fc20010 	lw	v0,16(s8)
    41c8:	00000000 	nop
    41cc:	2442ffff 	addiu	v0,v0,-1
    41d0:	afc20010 	sw	v0,16(s8)
    41d4:	8fc20010 	lw	v0,16(s8)
    41d8:	00000000 	nop
    41dc:	00021080 	sll	v0,v0,0x2
    41e0:	8fc30028 	lw	v1,40(s8)
    41e4:	00000000 	nop
    41e8:	00621021 	addu	v0,v1,v0
    41ec:	afc2002c 	sw	v0,44(s8)
    41f0:	8fc20050 	lw	v0,80(s8)
    41f4:	00000000 	nop
    41f8:	24420014 	addiu	v0,v0,20
    41fc:	afc20020 	sw	v0,32(s8)
    4200:	8fc20010 	lw	v0,16(s8)
    4204:	00000000 	nop
    4208:	00021080 	sll	v0,v0,0x2
    420c:	8fc30020 	lw	v1,32(s8)
    4210:	00000000 	nop
    4214:	00621021 	addu	v0,v1,v0
    4218:	afc20024 	sw	v0,36(s8)
    421c:	8fc20024 	lw	v0,36(s8)
    4220:	00000000 	nop
    4224:	8c430000 	lw	v1,0(v0)
    4228:	8fc2002c 	lw	v0,44(s8)
    422c:	00000000 	nop
    4230:	8c420000 	lw	v0,0(v0)
    4234:	00000000 	nop
    4238:	24420001 	addiu	v0,v0,1
    423c:	14400002 	bnez	v0,4248 <quorem+0xec>
    4240:	0062001b 	divu	zero,v1,v0
    4244:	0007000d 	break	0x7
    4248:	00001810 	mfhi	v1
    424c:	00001012 	mflo	v0
    4250:	afc2001c 	sw	v0,28(s8)
    4254:	8fc2001c 	lw	v0,28(s8)
    4258:	00000000 	nop
    425c:	1040007d 	beqz	v0,4454 <quorem+0x2f8>
    4260:	00000000 	nop
    4264:	afc00014 	sw	zero,20(s8)
    4268:	afc00018 	sw	zero,24(s8)
    426c:	8fc20028 	lw	v0,40(s8)
    4270:	00000000 	nop
    4274:	24430004 	addiu	v1,v0,4
    4278:	afc30028 	sw	v1,40(s8)
    427c:	8c420000 	lw	v0,0(v0)
    4280:	00000000 	nop
    4284:	afc20030 	sw	v0,48(s8)
    4288:	8fc20030 	lw	v0,48(s8)
    428c:	00000000 	nop
    4290:	3043ffff 	andi	v1,v0,0xffff
    4294:	8fc2001c 	lw	v0,28(s8)
    4298:	00000000 	nop
    429c:	00620018 	mult	v1,v0
    42a0:	00001812 	mflo	v1
    42a4:	8fc20018 	lw	v0,24(s8)
    42a8:	00000000 	nop
    42ac:	00621021 	addu	v0,v1,v0
    42b0:	afc20034 	sw	v0,52(s8)
    42b4:	8fc20030 	lw	v0,48(s8)
    42b8:	00000000 	nop
    42bc:	00021c02 	srl	v1,v0,0x10
    42c0:	8fc2001c 	lw	v0,28(s8)
    42c4:	00000000 	nop
    42c8:	00620018 	mult	v1,v0
    42cc:	00001812 	mflo	v1
    42d0:	8fc20034 	lw	v0,52(s8)
    42d4:	00000000 	nop
    42d8:	00021402 	srl	v0,v0,0x10
    42dc:	00621021 	addu	v0,v1,v0
    42e0:	afc20038 	sw	v0,56(s8)
    42e4:	8fc20038 	lw	v0,56(s8)
    42e8:	00000000 	nop
    42ec:	00021402 	srl	v0,v0,0x10
    42f0:	afc20018 	sw	v0,24(s8)
    42f4:	8fc20020 	lw	v0,32(s8)
    42f8:	00000000 	nop
    42fc:	8c420000 	lw	v0,0(v0)
    4300:	00000000 	nop
    4304:	3043ffff 	andi	v1,v0,0xffff
    4308:	8fc20034 	lw	v0,52(s8)
    430c:	00000000 	nop
    4310:	3042ffff 	andi	v0,v0,0xffff
    4314:	00621823 	subu	v1,v1,v0
    4318:	8fc20014 	lw	v0,20(s8)
    431c:	00000000 	nop
    4320:	00621021 	addu	v0,v1,v0
    4324:	afc2003c 	sw	v0,60(s8)
    4328:	8fc2003c 	lw	v0,60(s8)
    432c:	00000000 	nop
    4330:	00021403 	sra	v0,v0,0x10
    4334:	afc20014 	sw	v0,20(s8)
    4338:	8fc20020 	lw	v0,32(s8)
    433c:	00000000 	nop
    4340:	8c420000 	lw	v0,0(v0)
    4344:	00000000 	nop
    4348:	00021c02 	srl	v1,v0,0x10
    434c:	8fc20038 	lw	v0,56(s8)
    4350:	00000000 	nop
    4354:	3042ffff 	andi	v0,v0,0xffff
    4358:	00621823 	subu	v1,v1,v0
    435c:	8fc20014 	lw	v0,20(s8)
    4360:	00000000 	nop
    4364:	00621021 	addu	v0,v1,v0
    4368:	afc20040 	sw	v0,64(s8)
    436c:	8fc20040 	lw	v0,64(s8)
    4370:	00000000 	nop
    4374:	00021403 	sra	v0,v0,0x10
    4378:	afc20014 	sw	v0,20(s8)
    437c:	8fc20020 	lw	v0,32(s8)
    4380:	00000000 	nop
    4384:	24430004 	addiu	v1,v0,4
    4388:	afc30020 	sw	v1,32(s8)
    438c:	8fc30040 	lw	v1,64(s8)
    4390:	00000000 	nop
    4394:	00032400 	sll	a0,v1,0x10
    4398:	8fc3003c 	lw	v1,60(s8)
    439c:	00000000 	nop
    43a0:	3063ffff 	andi	v1,v1,0xffff
    43a4:	00831825 	or	v1,a0,v1
    43a8:	ac430000 	sw	v1,0(v0)
    43ac:	8fc30028 	lw	v1,40(s8)
    43b0:	8fc2002c 	lw	v0,44(s8)
    43b4:	00000000 	nop
    43b8:	0043102b 	sltu	v0,v0,v1
    43bc:	1040ffab 	beqz	v0,426c <quorem+0x110>
    43c0:	00000000 	nop
    43c4:	8fc20024 	lw	v0,36(s8)
    43c8:	00000000 	nop
    43cc:	8c420000 	lw	v0,0(v0)
    43d0:	00000000 	nop
    43d4:	1440001f 	bnez	v0,4454 <quorem+0x2f8>
    43d8:	00000000 	nop
    43dc:	8fc20050 	lw	v0,80(s8)
    43e0:	00000000 	nop
    43e4:	24420014 	addiu	v0,v0,20
    43e8:	afc20020 	sw	v0,32(s8)
    43ec:	08001101 	j	4404 <quorem+0x2a8>
    43f0:	00000000 	nop
    43f4:	8fc20010 	lw	v0,16(s8)
    43f8:	00000000 	nop
    43fc:	2442ffff 	addiu	v0,v0,-1
    4400:	afc20010 	sw	v0,16(s8)
    4404:	8fc20024 	lw	v0,36(s8)
    4408:	00000000 	nop
    440c:	2442fffc 	addiu	v0,v0,-4
    4410:	afc20024 	sw	v0,36(s8)
    4414:	8fc30024 	lw	v1,36(s8)
    4418:	8fc20020 	lw	v0,32(s8)
    441c:	00000000 	nop
    4420:	0043102b 	sltu	v0,v0,v1
    4424:	10400007 	beqz	v0,4444 <quorem+0x2e8>
    4428:	00000000 	nop
    442c:	8fc20024 	lw	v0,36(s8)
    4430:	00000000 	nop
    4434:	8c420000 	lw	v0,0(v0)
    4438:	00000000 	nop
    443c:	1040ffed 	beqz	v0,43f4 <quorem+0x298>
    4440:	00000000 	nop
    4444:	8fc20050 	lw	v0,80(s8)
    4448:	8fc30010 	lw	v1,16(s8)
    444c:	00000000 	nop
    4450:	ac430010 	sw	v1,16(v0)
    4454:	8fc40050 	lw	a0,80(s8)
    4458:	8fc50054 	lw	a1,84(s8)
    445c:	0c002d83 	jal	b60c <__mcmp>
    4460:	00000000 	nop
    4464:	04400088 	bltz	v0,4688 <quorem+0x52c>
    4468:	00000000 	nop
    446c:	8fc2001c 	lw	v0,28(s8)
    4470:	00000000 	nop
    4474:	24420001 	addiu	v0,v0,1
    4478:	afc2001c 	sw	v0,28(s8)
    447c:	afc00014 	sw	zero,20(s8)
    4480:	afc00018 	sw	zero,24(s8)
    4484:	8fc20050 	lw	v0,80(s8)
    4488:	00000000 	nop
    448c:	24420014 	addiu	v0,v0,20
    4490:	afc20020 	sw	v0,32(s8)
    4494:	8fc20054 	lw	v0,84(s8)
    4498:	00000000 	nop
    449c:	24420014 	addiu	v0,v0,20
    44a0:	afc20028 	sw	v0,40(s8)
    44a4:	8fc20028 	lw	v0,40(s8)
    44a8:	00000000 	nop
    44ac:	24430004 	addiu	v1,v0,4
    44b0:	afc30028 	sw	v1,40(s8)
    44b4:	8c420000 	lw	v0,0(v0)
    44b8:	00000000 	nop
    44bc:	afc20030 	sw	v0,48(s8)
    44c0:	8fc20030 	lw	v0,48(s8)
    44c4:	00000000 	nop
    44c8:	3043ffff 	andi	v1,v0,0xffff
    44cc:	8fc20018 	lw	v0,24(s8)
    44d0:	00000000 	nop
    44d4:	00621021 	addu	v0,v1,v0
    44d8:	afc20034 	sw	v0,52(s8)
    44dc:	8fc20030 	lw	v0,48(s8)
    44e0:	00000000 	nop
    44e4:	00021c02 	srl	v1,v0,0x10
    44e8:	8fc20034 	lw	v0,52(s8)
    44ec:	00000000 	nop
    44f0:	00021402 	srl	v0,v0,0x10
    44f4:	00621021 	addu	v0,v1,v0
    44f8:	afc20038 	sw	v0,56(s8)
    44fc:	8fc20038 	lw	v0,56(s8)
    4500:	00000000 	nop
    4504:	00021402 	srl	v0,v0,0x10
    4508:	afc20018 	sw	v0,24(s8)
    450c:	8fc20020 	lw	v0,32(s8)
    4510:	00000000 	nop
    4514:	8c420000 	lw	v0,0(v0)
    4518:	00000000 	nop
    451c:	3043ffff 	andi	v1,v0,0xffff
    4520:	8fc20034 	lw	v0,52(s8)
    4524:	00000000 	nop
    4528:	3042ffff 	andi	v0,v0,0xffff
    452c:	00621823 	subu	v1,v1,v0
    4530:	8fc20014 	lw	v0,20(s8)
    4534:	00000000 	nop
    4538:	00621021 	addu	v0,v1,v0
    453c:	afc2003c 	sw	v0,60(s8)
    4540:	8fc2003c 	lw	v0,60(s8)
    4544:	00000000 	nop
    4548:	00021403 	sra	v0,v0,0x10
    454c:	afc20014 	sw	v0,20(s8)
    4550:	8fc20020 	lw	v0,32(s8)
    4554:	00000000 	nop
    4558:	8c420000 	lw	v0,0(v0)
    455c:	00000000 	nop
    4560:	00021c02 	srl	v1,v0,0x10
    4564:	8fc20038 	lw	v0,56(s8)
    4568:	00000000 	nop
    456c:	3042ffff 	andi	v0,v0,0xffff
    4570:	00621823 	subu	v1,v1,v0
    4574:	8fc20014 	lw	v0,20(s8)
    4578:	00000000 	nop
    457c:	00621021 	addu	v0,v1,v0
    4580:	afc20040 	sw	v0,64(s8)
    4584:	8fc20040 	lw	v0,64(s8)
    4588:	00000000 	nop
    458c:	00021403 	sra	v0,v0,0x10
    4590:	afc20014 	sw	v0,20(s8)
    4594:	8fc20020 	lw	v0,32(s8)
    4598:	00000000 	nop
    459c:	24430004 	addiu	v1,v0,4
    45a0:	afc30020 	sw	v1,32(s8)
    45a4:	8fc30040 	lw	v1,64(s8)
    45a8:	00000000 	nop
    45ac:	00032400 	sll	a0,v1,0x10
    45b0:	8fc3003c 	lw	v1,60(s8)
    45b4:	00000000 	nop
    45b8:	3063ffff 	andi	v1,v1,0xffff
    45bc:	00831825 	or	v1,a0,v1
    45c0:	ac430000 	sw	v1,0(v0)
    45c4:	8fc30028 	lw	v1,40(s8)
    45c8:	8fc2002c 	lw	v0,44(s8)
    45cc:	00000000 	nop
    45d0:	0043102b 	sltu	v0,v0,v1
    45d4:	1040ffb3 	beqz	v0,44a4 <quorem+0x348>
    45d8:	00000000 	nop
    45dc:	8fc20050 	lw	v0,80(s8)
    45e0:	00000000 	nop
    45e4:	24420014 	addiu	v0,v0,20
    45e8:	afc20020 	sw	v0,32(s8)
    45ec:	8fc20010 	lw	v0,16(s8)
    45f0:	00000000 	nop
    45f4:	00021080 	sll	v0,v0,0x2
    45f8:	8fc30020 	lw	v1,32(s8)
    45fc:	00000000 	nop
    4600:	00621021 	addu	v0,v1,v0
    4604:	afc20024 	sw	v0,36(s8)
    4608:	8fc20024 	lw	v0,36(s8)
    460c:	00000000 	nop
    4610:	8c420000 	lw	v0,0(v0)
    4614:	00000000 	nop
    4618:	1440001b 	bnez	v0,4688 <quorem+0x52c>
    461c:	00000000 	nop
    4620:	0800118e 	j	4638 <quorem+0x4dc>
    4624:	00000000 	nop
    4628:	8fc20010 	lw	v0,16(s8)
    462c:	00000000 	nop
    4630:	2442ffff 	addiu	v0,v0,-1
    4634:	afc20010 	sw	v0,16(s8)
    4638:	8fc20024 	lw	v0,36(s8)
    463c:	00000000 	nop
    4640:	2442fffc 	addiu	v0,v0,-4
    4644:	afc20024 	sw	v0,36(s8)
    4648:	8fc30024 	lw	v1,36(s8)
    464c:	8fc20020 	lw	v0,32(s8)
    4650:	00000000 	nop
    4654:	0043102b 	sltu	v0,v0,v1
    4658:	10400007 	beqz	v0,4678 <quorem+0x51c>
    465c:	00000000 	nop
    4660:	8fc20024 	lw	v0,36(s8)
    4664:	00000000 	nop
    4668:	8c420000 	lw	v0,0(v0)
    466c:	00000000 	nop
    4670:	1040ffed 	beqz	v0,4628 <quorem+0x4cc>
    4674:	00000000 	nop
    4678:	8fc20050 	lw	v0,80(s8)
    467c:	8fc30010 	lw	v1,16(s8)
    4680:	00000000 	nop
    4684:	ac430010 	sw	v1,16(v0)
    4688:	8fc2001c 	lw	v0,28(s8)
    468c:	03c0e821 	move	sp,s8
    4690:	8fbf004c 	lw	ra,76(sp)
    4694:	8fbe0048 	lw	s8,72(sp)
    4698:	27bd0050 	addiu	sp,sp,80
    469c:	03e00008 	jr	ra
    46a0:	00000000 	nop

000046a4 <_dtoa_r>:
    46a4:	27bdff28 	addiu	sp,sp,-216
    46a8:	afbf00d4 	sw	ra,212(sp)
    46ac:	afbe00d0 	sw	s8,208(sp)
    46b0:	afb300cc 	sw	s3,204(sp)
    46b4:	afb200c8 	sw	s2,200(sp)
    46b8:	afb100c4 	sw	s1,196(sp)
    46bc:	afb000c0 	sw	s0,192(sp)
    46c0:	03a0f021 	move	s8,sp
    46c4:	afc400d8 	sw	a0,216(s8)
    46c8:	afc700e4 	sw	a3,228(s8)
    46cc:	afc600e0 	sw	a2,224(s8)
    46d0:	afc00064 	sw	zero,100(s8)
    46d4:	8fc300e4 	lw	v1,228(s8)
    46d8:	8fc200e0 	lw	v0,224(s8)
    46dc:	afc300ac 	sw	v1,172(s8)
    46e0:	afc200a8 	sw	v0,168(s8)
    46e4:	8fc200d8 	lw	v0,216(s8)
    46e8:	00000000 	nop
    46ec:	8c420040 	lw	v0,64(v0)
    46f0:	00000000 	nop
    46f4:	1040001c 	beqz	v0,4768 <_dtoa_r+0xc4>
    46f8:	00000000 	nop
    46fc:	8fc200d8 	lw	v0,216(s8)
    4700:	00000000 	nop
    4704:	8c420040 	lw	v0,64(v0)
    4708:	8fc300d8 	lw	v1,216(s8)
    470c:	00000000 	nop
    4710:	8c630044 	lw	v1,68(v1)
    4714:	00000000 	nop
    4718:	ac430004 	sw	v1,4(v0)
    471c:	8fc200d8 	lw	v0,216(s8)
    4720:	00000000 	nop
    4724:	8c420040 	lw	v0,64(v0)
    4728:	8fc300d8 	lw	v1,216(s8)
    472c:	00000000 	nop
    4730:	8c630044 	lw	v1,68(v1)
    4734:	24040001 	li	a0,1
    4738:	00641804 	sllv	v1,a0,v1
    473c:	ac430008 	sw	v1,8(v0)
    4740:	8fc200d8 	lw	v0,216(s8)
    4744:	00000000 	nop
    4748:	8c420040 	lw	v0,64(v0)
    474c:	8fc400d8 	lw	a0,216(s8)
    4750:	00402821 	move	a1,v0
    4754:	0c002925 	jal	a494 <_Bfree>
    4758:	00000000 	nop
    475c:	8fc200d8 	lw	v0,216(s8)
    4760:	00000000 	nop
    4764:	ac400040 	sw	zero,64(v0)
    4768:	8fc200a8 	lw	v0,168(s8)
    476c:	00000000 	nop
    4770:	0441000b 	bgez	v0,47a0 <_dtoa_r+0xfc>
    4774:	00000000 	nop
    4778:	8fc200f4 	lw	v0,244(s8)
    477c:	24030001 	li	v1,1
    4780:	ac430000 	sw	v1,0(v0)
    4784:	8fc300a8 	lw	v1,168(s8)
    4788:	3c027fff 	lui	v0,0x7fff
    478c:	3442ffff 	ori	v0,v0,0xffff
    4790:	00621024 	and	v0,v1,v0
    4794:	afc200a8 	sw	v0,168(s8)
    4798:	080011eb 	j	47ac <_dtoa_r+0x108>
    479c:	00000000 	nop
    47a0:	8fc200f4 	lw	v0,244(s8)
    47a4:	00000000 	nop
    47a8:	ac400000 	sw	zero,0(v0)
    47ac:	8fc300a8 	lw	v1,168(s8)
    47b0:	3c027ff0 	lui	v0,0x7ff0
    47b4:	00621824 	and	v1,v1,v0
    47b8:	3c027ff0 	lui	v0,0x7ff0
    47bc:	1462002e 	bne	v1,v0,4878 <_dtoa_r+0x1d4>
    47c0:	00000000 	nop
    47c4:	8fc200f0 	lw	v0,240(s8)
    47c8:	2403270f 	li	v1,9999
    47cc:	ac430000 	sw	v1,0(v0)
    47d0:	8fc200ac 	lw	v0,172(s8)
    47d4:	00000000 	nop
    47d8:	1440000b 	bnez	v0,4808 <_dtoa_r+0x164>
    47dc:	00000000 	nop
    47e0:	8fc300a8 	lw	v1,168(s8)
    47e4:	3c02000f 	lui	v0,0xf
    47e8:	3442ffff 	ori	v0,v0,0xffff
    47ec:	00621024 	and	v0,v1,v0
    47f0:	14400005 	bnez	v0,4808 <_dtoa_r+0x164>
    47f4:	00000000 	nop
    47f8:	3c020001 	lui	v0,0x1
    47fc:	24424c94 	addiu	v0,v0,19604
    4800:	08001204 	j	4810 <_dtoa_r+0x16c>
    4804:	00000000 	nop
    4808:	3c020001 	lui	v0,0x1
    480c:	24424ca0 	addiu	v0,v0,19616
    4810:	afc20078 	sw	v0,120(s8)
    4814:	8fc200f8 	lw	v0,248(s8)
    4818:	00000000 	nop
    481c:	10400013 	beqz	v0,486c <_dtoa_r+0x1c8>
    4820:	00000000 	nop
    4824:	8fc20078 	lw	v0,120(s8)
    4828:	00000000 	nop
    482c:	24420003 	addiu	v0,v0,3
    4830:	80420000 	lb	v0,0(v0)
    4834:	00000000 	nop
    4838:	10400006 	beqz	v0,4854 <_dtoa_r+0x1b0>
    483c:	00000000 	nop
    4840:	8fc20078 	lw	v0,120(s8)
    4844:	00000000 	nop
    4848:	24420008 	addiu	v0,v0,8
    484c:	08001218 	j	4860 <_dtoa_r+0x1bc>
    4850:	00000000 	nop
    4854:	8fc20078 	lw	v0,120(s8)
    4858:	00000000 	nop
    485c:	24420003 	addiu	v0,v0,3
    4860:	8fc300f8 	lw	v1,248(s8)
    4864:	00000000 	nop
    4868:	ac620000 	sw	v0,0(v1)
    486c:	8fc20078 	lw	v0,120(s8)
    4870:	08001a16 	j	6858 <_dtoa_r+0x21b4>
    4874:	00000000 	nop
    4878:	8fc300ac 	lw	v1,172(s8)
    487c:	8fc200a8 	lw	v0,168(s8)
    4880:	00602821 	move	a1,v1
    4884:	00402021 	move	a0,v0
    4888:	00003821 	move	a3,zero
    488c:	00003021 	move	a2,zero
    4890:	0c004fe4 	jal	13f90 <__eqdf2>
    4894:	00000000 	nop
    4898:	14400014 	bnez	v0,48ec <_dtoa_r+0x248>
    489c:	00000000 	nop
    48a0:	8fc200f0 	lw	v0,240(s8)
    48a4:	24030001 	li	v1,1
    48a8:	ac430000 	sw	v1,0(v0)
    48ac:	3c020001 	lui	v0,0x1
    48b0:	24424ca4 	addiu	v0,v0,19620
    48b4:	afc20078 	sw	v0,120(s8)
    48b8:	8fc200f8 	lw	v0,248(s8)
    48bc:	00000000 	nop
    48c0:	10400007 	beqz	v0,48e0 <_dtoa_r+0x23c>
    48c4:	00000000 	nop
    48c8:	8fc20078 	lw	v0,120(s8)
    48cc:	00000000 	nop
    48d0:	24430001 	addiu	v1,v0,1
    48d4:	8fc200f8 	lw	v0,248(s8)
    48d8:	00000000 	nop
    48dc:	ac430000 	sw	v1,0(v0)
    48e0:	8fc20078 	lw	v0,120(s8)
    48e4:	08001a16 	j	6858 <_dtoa_r+0x21b4>
    48e8:	00000000 	nop
    48ec:	8fc300ac 	lw	v1,172(s8)
    48f0:	8fc200a8 	lw	v0,168(s8)
    48f4:	27c400a0 	addiu	a0,s8,160
    48f8:	afa40010 	sw	a0,16(sp)
    48fc:	27c4009c 	addiu	a0,s8,156
    4900:	afa40014 	sw	a0,20(sp)
    4904:	8fc400d8 	lw	a0,216(s8)
    4908:	00603821 	move	a3,v1
    490c:	00403021 	move	a2,v0
    4910:	0c002fb4 	jal	bed0 <__d2b>
    4914:	00000000 	nop
    4918:	afc20060 	sw	v0,96(s8)
    491c:	8fc200a8 	lw	v0,168(s8)
    4920:	00000000 	nop
    4924:	00021502 	srl	v0,v0,0x14
    4928:	304207ff 	andi	v0,v0,0x7ff
    492c:	afc20024 	sw	v0,36(s8)
    4930:	8fc20024 	lw	v0,36(s8)
    4934:	00000000 	nop
    4938:	10400015 	beqz	v0,4990 <_dtoa_r+0x2ec>
    493c:	00000000 	nop
    4940:	8fc300ac 	lw	v1,172(s8)
    4944:	8fc200a8 	lw	v0,168(s8)
    4948:	afc300b4 	sw	v1,180(s8)
    494c:	afc200b0 	sw	v0,176(s8)
    4950:	8fc300b0 	lw	v1,176(s8)
    4954:	3c02000f 	lui	v0,0xf
    4958:	3442ffff 	ori	v0,v0,0xffff
    495c:	00621024 	and	v0,v1,v0
    4960:	afc200b0 	sw	v0,176(s8)
    4964:	8fc300b0 	lw	v1,176(s8)
    4968:	3c023ff0 	lui	v0,0x3ff0
    496c:	00621025 	or	v0,v1,v0
    4970:	afc200b0 	sw	v0,176(s8)
    4974:	8fc20024 	lw	v0,36(s8)
    4978:	00000000 	nop
    497c:	2442fc01 	addiu	v0,v0,-1023
    4980:	afc20024 	sw	v0,36(s8)
    4984:	afc0005c 	sw	zero,92(s8)
    4988:	08001293 	j	4a4c <_dtoa_r+0x3a8>
    498c:	00000000 	nop
    4990:	8fc3009c 	lw	v1,156(s8)
    4994:	8fc200a0 	lw	v0,160(s8)
    4998:	00000000 	nop
    499c:	00621021 	addu	v0,v1,v0
    49a0:	24420432 	addiu	v0,v0,1074
    49a4:	afc20024 	sw	v0,36(s8)
    49a8:	8fc20024 	lw	v0,36(s8)
    49ac:	00000000 	nop
    49b0:	28420021 	slti	v0,v0,33
    49b4:	1440000f 	bnez	v0,49f4 <_dtoa_r+0x350>
    49b8:	00000000 	nop
    49bc:	8fc300a8 	lw	v1,168(s8)
    49c0:	24040040 	li	a0,64
    49c4:	8fc20024 	lw	v0,36(s8)
    49c8:	00000000 	nop
    49cc:	00821023 	subu	v0,a0,v0
    49d0:	00431804 	sllv	v1,v1,v0
    49d4:	8fc400ac 	lw	a0,172(s8)
    49d8:	8fc20024 	lw	v0,36(s8)
    49dc:	00000000 	nop
    49e0:	2442ffe0 	addiu	v0,v0,-32
    49e4:	00441006 	srlv	v0,a0,v0
    49e8:	00621025 	or	v0,v1,v0
    49ec:	08001283 	j	4a0c <_dtoa_r+0x368>
    49f0:	00000000 	nop
    49f4:	8fc300ac 	lw	v1,172(s8)
    49f8:	24040020 	li	a0,32
    49fc:	8fc20024 	lw	v0,36(s8)
    4a00:	00000000 	nop
    4a04:	00821023 	subu	v0,a0,v0
    4a08:	00431004 	sllv	v0,v1,v0
    4a0c:	afc2007c 	sw	v0,124(s8)
    4a10:	8fc4007c 	lw	a0,124(s8)
    4a14:	0c0050ef 	jal	143bc <__floatunsidf>
    4a18:	00000000 	nop
    4a1c:	afc300b4 	sw	v1,180(s8)
    4a20:	afc200b0 	sw	v0,176(s8)
    4a24:	8fc300b0 	lw	v1,176(s8)
    4a28:	3c02fe10 	lui	v0,0xfe10
    4a2c:	00621021 	addu	v0,v1,v0
    4a30:	afc200b0 	sw	v0,176(s8)
    4a34:	8fc20024 	lw	v0,36(s8)
    4a38:	00000000 	nop
    4a3c:	2442fbcd 	addiu	v0,v0,-1075
    4a40:	afc20024 	sw	v0,36(s8)
    4a44:	24020001 	li	v0,1
    4a48:	afc2005c 	sw	v0,92(s8)
    4a4c:	8fc300b4 	lw	v1,180(s8)
    4a50:	8fc200b0 	lw	v0,176(s8)
    4a54:	00602821 	move	a1,v1
    4a58:	00402021 	move	a0,v0
    4a5c:	8f87802c 	lw	a3,-32724(gp)
    4a60:	8f868028 	lw	a2,-32728(gp)
    4a64:	0c004e8d 	jal	13a34 <__subdf3>
    4a68:	00000000 	nop
    4a6c:	00602821 	move	a1,v1
    4a70:	00402021 	move	a0,v0
    4a74:	8f878034 	lw	a3,-32716(gp)
    4a78:	8f868030 	lw	a2,-32720(gp)
    4a7c:	0c004ea6 	jal	13a98 <__muldf3>
    4a80:	00000000 	nop
    4a84:	00602821 	move	a1,v1
    4a88:	00402021 	move	a0,v0
    4a8c:	8f87803c 	lw	a3,-32708(gp)
    4a90:	8f868038 	lw	a2,-32712(gp)
    4a94:	0c004e77 	jal	139dc <__adddf3>
    4a98:	00000000 	nop
    4a9c:	00609821 	move	s3,v1
    4aa0:	00409021 	move	s2,v0
    4aa4:	8fc40024 	lw	a0,36(s8)
    4aa8:	0c00507a 	jal	141e8 <__floatsidf>
    4aac:	00000000 	nop
    4ab0:	00602821 	move	a1,v1
    4ab4:	00402021 	move	a0,v0
    4ab8:	8f878044 	lw	a3,-32700(gp)
    4abc:	8f868040 	lw	a2,-32704(gp)
    4ac0:	0c004ea6 	jal	13a98 <__muldf3>
    4ac4:	00000000 	nop
    4ac8:	02602821 	move	a1,s3
    4acc:	02402021 	move	a0,s2
    4ad0:	00603821 	move	a3,v1
    4ad4:	00403021 	move	a2,v0
    4ad8:	0c004e77 	jal	139dc <__adddf3>
    4adc:	00000000 	nop
    4ae0:	afc30074 	sw	v1,116(s8)
    4ae4:	afc20070 	sw	v0,112(s8)
    4ae8:	8fc50074 	lw	a1,116(s8)
    4aec:	8fc40070 	lw	a0,112(s8)
    4af0:	0c0050b2 	jal	142c8 <__fixdfsi>
    4af4:	00000000 	nop
    4af8:	afc20038 	sw	v0,56(s8)
    4afc:	8fc50074 	lw	a1,116(s8)
    4b00:	8fc40070 	lw	a0,112(s8)
    4b04:	00003821 	move	a3,zero
    4b08:	00003021 	move	a2,zero
    4b0c:	0c00503e 	jal	140f8 <__ltdf2>
    4b10:	00000000 	nop
    4b14:	04410010 	bgez	v0,4b58 <_dtoa_r+0x4b4>
    4b18:	00000000 	nop
    4b1c:	8fc40038 	lw	a0,56(s8)
    4b20:	0c00507a 	jal	141e8 <__floatsidf>
    4b24:	00000000 	nop
    4b28:	00602821 	move	a1,v1
    4b2c:	00402021 	move	a0,v0
    4b30:	8fc70074 	lw	a3,116(s8)
    4b34:	8fc60070 	lw	a2,112(s8)
    4b38:	0c005002 	jal	14008 <__nedf2>
    4b3c:	00000000 	nop
    4b40:	10400005 	beqz	v0,4b58 <_dtoa_r+0x4b4>
    4b44:	00000000 	nop
    4b48:	8fc20038 	lw	v0,56(s8)
    4b4c:	00000000 	nop
    4b50:	2442ffff 	addiu	v0,v0,-1
    4b54:	afc20038 	sw	v0,56(s8)
    4b58:	24020001 	li	v0,1
    4b5c:	afc2003c 	sw	v0,60(s8)
    4b60:	8fc20038 	lw	v0,56(s8)
    4b64:	00000000 	nop
    4b68:	0440001b 	bltz	v0,4bd8 <_dtoa_r+0x534>
    4b6c:	00000000 	nop
    4b70:	8fc20038 	lw	v0,56(s8)
    4b74:	00000000 	nop
    4b78:	28420017 	slti	v0,v0,23
    4b7c:	10400016 	beqz	v0,4bd8 <_dtoa_r+0x534>
    4b80:	00000000 	nop
    4b84:	8fc500ac 	lw	a1,172(s8)
    4b88:	8fc400a8 	lw	a0,168(s8)
    4b8c:	3c020001 	lui	v0,0x1
    4b90:	8fc30038 	lw	v1,56(s8)
    4b94:	00000000 	nop
    4b98:	000318c0 	sll	v1,v1,0x3
    4b9c:	24424cd8 	addiu	v0,v0,19672
    4ba0:	00621021 	addu	v0,v1,v0
    4ba4:	8c430004 	lw	v1,4(v0)
    4ba8:	8c420000 	lw	v0,0(v0)
    4bac:	00603821 	move	a3,v1
    4bb0:	00403021 	move	a2,v0
    4bb4:	0c00503e 	jal	140f8 <__ltdf2>
    4bb8:	00000000 	nop
    4bbc:	04410005 	bgez	v0,4bd4 <_dtoa_r+0x530>
    4bc0:	00000000 	nop
    4bc4:	8fc20038 	lw	v0,56(s8)
    4bc8:	00000000 	nop
    4bcc:	2442ffff 	addiu	v0,v0,-1
    4bd0:	afc20038 	sw	v0,56(s8)
    4bd4:	afc0003c 	sw	zero,60(s8)
    4bd8:	8fc3009c 	lw	v1,156(s8)
    4bdc:	8fc20024 	lw	v0,36(s8)
    4be0:	00000000 	nop
    4be4:	00621023 	subu	v0,v1,v0
    4be8:	2442ffff 	addiu	v0,v0,-1
    4bec:	afc20034 	sw	v0,52(s8)
    4bf0:	8fc20034 	lw	v0,52(s8)
    4bf4:	00000000 	nop
    4bf8:	04400007 	bltz	v0,4c18 <_dtoa_r+0x574>
    4bfc:	00000000 	nop
    4c00:	afc00018 	sw	zero,24(s8)
    4c04:	8fc20034 	lw	v0,52(s8)
    4c08:	00000000 	nop
    4c0c:	afc2004c 	sw	v0,76(s8)
    4c10:	0800130b 	j	4c2c <_dtoa_r+0x588>
    4c14:	00000000 	nop
    4c18:	8fc20034 	lw	v0,52(s8)
    4c1c:	00000000 	nop
    4c20:	00021023 	negu	v0,v0
    4c24:	afc20018 	sw	v0,24(s8)
    4c28:	afc0004c 	sw	zero,76(s8)
    4c2c:	8fc20038 	lw	v0,56(s8)
    4c30:	00000000 	nop
    4c34:	0440000c 	bltz	v0,4c68 <_dtoa_r+0x5c4>
    4c38:	00000000 	nop
    4c3c:	afc0001c 	sw	zero,28(s8)
    4c40:	8fc20038 	lw	v0,56(s8)
    4c44:	00000000 	nop
    4c48:	afc20050 	sw	v0,80(s8)
    4c4c:	8fc3004c 	lw	v1,76(s8)
    4c50:	8fc20038 	lw	v0,56(s8)
    4c54:	00000000 	nop
    4c58:	00621021 	addu	v0,v1,v0
    4c5c:	afc2004c 	sw	v0,76(s8)
    4c60:	08001324 	j	4c90 <_dtoa_r+0x5ec>
    4c64:	00000000 	nop
    4c68:	8fc30018 	lw	v1,24(s8)
    4c6c:	8fc20038 	lw	v0,56(s8)
    4c70:	00000000 	nop
    4c74:	00621023 	subu	v0,v1,v0
    4c78:	afc20018 	sw	v0,24(s8)
    4c7c:	8fc20038 	lw	v0,56(s8)
    4c80:	00000000 	nop
    4c84:	00021023 	negu	v0,v0
    4c88:	afc2001c 	sw	v0,28(s8)
    4c8c:	afc00050 	sw	zero,80(s8)
    4c90:	8fc200e8 	lw	v0,232(s8)
    4c94:	00000000 	nop
    4c98:	04400006 	bltz	v0,4cb4 <_dtoa_r+0x610>
    4c9c:	00000000 	nop
    4ca0:	8fc200e8 	lw	v0,232(s8)
    4ca4:	00000000 	nop
    4ca8:	2842000a 	slti	v0,v0,10
    4cac:	14400002 	bnez	v0,4cb8 <_dtoa_r+0x614>
    4cb0:	00000000 	nop
    4cb4:	afc000e8 	sw	zero,232(s8)
    4cb8:	24020001 	li	v0,1
    4cbc:	afc20058 	sw	v0,88(s8)
    4cc0:	8fc200e8 	lw	v0,232(s8)
    4cc4:	00000000 	nop
    4cc8:	28420006 	slti	v0,v0,6
    4ccc:	14400006 	bnez	v0,4ce8 <_dtoa_r+0x644>
    4cd0:	00000000 	nop
    4cd4:	8fc200e8 	lw	v0,232(s8)
    4cd8:	00000000 	nop
    4cdc:	2442fffc 	addiu	v0,v0,-4
    4ce0:	afc200e8 	sw	v0,232(s8)
    4ce4:	afc00058 	sw	zero,88(s8)
    4ce8:	24020001 	li	v0,1
    4cec:	afc20040 	sw	v0,64(s8)
    4cf0:	2402ffff 	li	v0,-1
    4cf4:	afc20030 	sw	v0,48(s8)
    4cf8:	8fc20030 	lw	v0,48(s8)
    4cfc:	00000000 	nop
    4d00:	afc2002c 	sw	v0,44(s8)
    4d04:	8fc200e8 	lw	v0,232(s8)
    4d08:	00000000 	nop
    4d0c:	2c420006 	sltiu	v0,v0,6
    4d10:	10400036 	beqz	v0,4dec <_dtoa_r+0x748>
    4d14:	00000000 	nop
    4d18:	8fc200e8 	lw	v0,232(s8)
    4d1c:	00000000 	nop
    4d20:	00021880 	sll	v1,v0,0x2
    4d24:	3c020001 	lui	v0,0x1
    4d28:	24424ca8 	addiu	v0,v0,19624
    4d2c:	00621021 	addu	v0,v1,v0
    4d30:	8c420000 	lw	v0,0(v0)
    4d34:	00000000 	nop
    4d38:	00400008 	jr	v0
    4d3c:	00000000 	nop
    4d40:	24020012 	li	v0,18
    4d44:	afc20024 	sw	v0,36(s8)
    4d48:	afc000ec 	sw	zero,236(s8)
    4d4c:	0800137b 	j	4dec <_dtoa_r+0x748>
    4d50:	00000000 	nop
    4d54:	afc00040 	sw	zero,64(s8)
    4d58:	8fc200ec 	lw	v0,236(s8)
    4d5c:	00000000 	nop
    4d60:	1c400003 	bgtz	v0,4d70 <_dtoa_r+0x6cc>
    4d64:	00000000 	nop
    4d68:	24020001 	li	v0,1
    4d6c:	afc200ec 	sw	v0,236(s8)
    4d70:	8fc200ec 	lw	v0,236(s8)
    4d74:	00000000 	nop
    4d78:	afc20024 	sw	v0,36(s8)
    4d7c:	8fc20024 	lw	v0,36(s8)
    4d80:	00000000 	nop
    4d84:	afc20030 	sw	v0,48(s8)
    4d88:	8fc20030 	lw	v0,48(s8)
    4d8c:	00000000 	nop
    4d90:	afc2002c 	sw	v0,44(s8)
    4d94:	0800137b 	j	4dec <_dtoa_r+0x748>
    4d98:	00000000 	nop
    4d9c:	afc00040 	sw	zero,64(s8)
    4da0:	8fc300ec 	lw	v1,236(s8)
    4da4:	8fc20038 	lw	v0,56(s8)
    4da8:	00000000 	nop
    4dac:	00621021 	addu	v0,v1,v0
    4db0:	24420001 	addiu	v0,v0,1
    4db4:	afc20024 	sw	v0,36(s8)
    4db8:	8fc20024 	lw	v0,36(s8)
    4dbc:	00000000 	nop
    4dc0:	afc2002c 	sw	v0,44(s8)
    4dc4:	8fc20024 	lw	v0,36(s8)
    4dc8:	00000000 	nop
    4dcc:	2442ffff 	addiu	v0,v0,-1
    4dd0:	afc20030 	sw	v0,48(s8)
    4dd4:	8fc20024 	lw	v0,36(s8)
    4dd8:	00000000 	nop
    4ddc:	1c400003 	bgtz	v0,4dec <_dtoa_r+0x748>
    4de0:	00000000 	nop
    4de4:	24020001 	li	v0,1
    4de8:	afc20024 	sw	v0,36(s8)
    4dec:	24020004 	li	v0,4
    4df0:	afc20034 	sw	v0,52(s8)
    4df4:	8fc200d8 	lw	v0,216(s8)
    4df8:	00000000 	nop
    4dfc:	ac400044 	sw	zero,68(v0)
    4e00:	0800138e 	j	4e38 <_dtoa_r+0x794>
    4e04:	00000000 	nop
    4e08:	8fc200d8 	lw	v0,216(s8)
    4e0c:	00000000 	nop
    4e10:	8c420044 	lw	v0,68(v0)
    4e14:	00000000 	nop
    4e18:	24430001 	addiu	v1,v0,1
    4e1c:	8fc200d8 	lw	v0,216(s8)
    4e20:	00000000 	nop
    4e24:	ac430044 	sw	v1,68(v0)
    4e28:	8fc20034 	lw	v0,52(s8)
    4e2c:	00000000 	nop
    4e30:	00021040 	sll	v0,v0,0x1
    4e34:	afc20034 	sw	v0,52(s8)
    4e38:	8fc20034 	lw	v0,52(s8)
    4e3c:	00000000 	nop
    4e40:	24430014 	addiu	v1,v0,20
    4e44:	8fc20024 	lw	v0,36(s8)
    4e48:	00000000 	nop
    4e4c:	0043102b 	sltu	v0,v0,v1
    4e50:	1040ffed 	beqz	v0,4e08 <_dtoa_r+0x764>
    4e54:	00000000 	nop
    4e58:	8fc200d8 	lw	v0,216(s8)
    4e5c:	00000000 	nop
    4e60:	8c420044 	lw	v0,68(v0)
    4e64:	8fc400d8 	lw	a0,216(s8)
    4e68:	00402821 	move	a1,v0
    4e6c:	0c0028bd 	jal	a2f4 <_Balloc>
    4e70:	00000000 	nop
    4e74:	00401821 	move	v1,v0
    4e78:	8fc200d8 	lw	v0,216(s8)
    4e7c:	00000000 	nop
    4e80:	ac430040 	sw	v1,64(v0)
    4e84:	8fc200d8 	lw	v0,216(s8)
    4e88:	00000000 	nop
    4e8c:	8c420040 	lw	v0,64(v0)
    4e90:	00000000 	nop
    4e94:	afc20080 	sw	v0,128(s8)
    4e98:	8fc20080 	lw	v0,128(s8)
    4e9c:	00000000 	nop
    4ea0:	afc20078 	sw	v0,120(s8)
    4ea4:	8fc2002c 	lw	v0,44(s8)
    4ea8:	00000000 	nop
    4eac:	0440023d 	bltz	v0,57a4 <_dtoa_r+0x1100>
    4eb0:	00000000 	nop
    4eb4:	8fc2002c 	lw	v0,44(s8)
    4eb8:	00000000 	nop
    4ebc:	2842000f 	slti	v0,v0,15
    4ec0:	10400238 	beqz	v0,57a4 <_dtoa_r+0x1100>
    4ec4:	00000000 	nop
    4ec8:	8fc20058 	lw	v0,88(s8)
    4ecc:	00000000 	nop
    4ed0:	10400234 	beqz	v0,57a4 <_dtoa_r+0x1100>
    4ed4:	00000000 	nop
    4ed8:	afc00024 	sw	zero,36(s8)
    4edc:	8fc300ac 	lw	v1,172(s8)
    4ee0:	8fc200a8 	lw	v0,168(s8)
    4ee4:	afc300b4 	sw	v1,180(s8)
    4ee8:	afc200b0 	sw	v0,176(s8)
    4eec:	8fc20038 	lw	v0,56(s8)
    4ef0:	00000000 	nop
    4ef4:	afc20084 	sw	v0,132(s8)
    4ef8:	8fc2002c 	lw	v0,44(s8)
    4efc:	00000000 	nop
    4f00:	afc20088 	sw	v0,136(s8)
    4f04:	24020002 	li	v0,2
    4f08:	afc20028 	sw	v0,40(s8)
    4f0c:	8fc20038 	lw	v0,56(s8)
    4f10:	00000000 	nop
    4f14:	1840005e 	blez	v0,5090 <_dtoa_r+0x9ec>
    4f18:	00000000 	nop
    4f1c:	8fc20038 	lw	v0,56(s8)
    4f20:	00000000 	nop
    4f24:	3043000f 	andi	v1,v0,0xf
    4f28:	3c020001 	lui	v0,0x1
    4f2c:	000318c0 	sll	v1,v1,0x3
    4f30:	24424cd8 	addiu	v0,v0,19672
    4f34:	00621021 	addu	v0,v1,v0
    4f38:	8c430004 	lw	v1,4(v0)
    4f3c:	8c420000 	lw	v0,0(v0)
    4f40:	afc30074 	sw	v1,116(s8)
    4f44:	afc20070 	sw	v0,112(s8)
    4f48:	8fc20038 	lw	v0,56(s8)
    4f4c:	00000000 	nop
    4f50:	00021103 	sra	v0,v0,0x4
    4f54:	afc20034 	sw	v0,52(s8)
    4f58:	8fc20034 	lw	v0,52(s8)
    4f5c:	00000000 	nop
    4f60:	30420010 	andi	v0,v0,0x10
    4f64:	10400017 	beqz	v0,4fc4 <_dtoa_r+0x920>
    4f68:	00000000 	nop
    4f6c:	8fc20034 	lw	v0,52(s8)
    4f70:	00000000 	nop
    4f74:	3042000f 	andi	v0,v0,0xf
    4f78:	afc20034 	sw	v0,52(s8)
    4f7c:	8fc500ac 	lw	a1,172(s8)
    4f80:	8fc400a8 	lw	a0,168(s8)
    4f84:	3c020001 	lui	v0,0x1
    4f88:	24424da0 	addiu	v0,v0,19872
    4f8c:	8c430024 	lw	v1,36(v0)
    4f90:	8c420020 	lw	v0,32(v0)
    4f94:	00603821 	move	a3,v1
    4f98:	00403021 	move	a2,v0
    4f9c:	0c004f61 	jal	13d84 <__divdf3>
    4fa0:	00000000 	nop
    4fa4:	afc300ac 	sw	v1,172(s8)
    4fa8:	afc200a8 	sw	v0,168(s8)
    4fac:	8fc20028 	lw	v0,40(s8)
    4fb0:	00000000 	nop
    4fb4:	24420001 	addiu	v0,v0,1
    4fb8:	afc20028 	sw	v0,40(s8)
    4fbc:	08001414 	j	5050 <_dtoa_r+0x9ac>
    4fc0:	00000000 	nop
    4fc4:	08001414 	j	5050 <_dtoa_r+0x9ac>
    4fc8:	00000000 	nop
    4fcc:	8fc20034 	lw	v0,52(s8)
    4fd0:	00000000 	nop
    4fd4:	30420001 	andi	v0,v0,0x1
    4fd8:	10400015 	beqz	v0,5030 <_dtoa_r+0x98c>
    4fdc:	00000000 	nop
    4fe0:	8fc20028 	lw	v0,40(s8)
    4fe4:	00000000 	nop
    4fe8:	24420001 	addiu	v0,v0,1
    4fec:	afc20028 	sw	v0,40(s8)
    4ff0:	3c020001 	lui	v0,0x1
    4ff4:	8fc30024 	lw	v1,36(s8)
    4ff8:	00000000 	nop
    4ffc:	000318c0 	sll	v1,v1,0x3
    5000:	24424da0 	addiu	v0,v0,19872
    5004:	00621021 	addu	v0,v1,v0
    5008:	8c430004 	lw	v1,4(v0)
    500c:	8c420000 	lw	v0,0(v0)
    5010:	8fc50074 	lw	a1,116(s8)
    5014:	8fc40070 	lw	a0,112(s8)
    5018:	00603821 	move	a3,v1
    501c:	00403021 	move	a2,v0
    5020:	0c004ea6 	jal	13a98 <__muldf3>
    5024:	00000000 	nop
    5028:	afc30074 	sw	v1,116(s8)
    502c:	afc20070 	sw	v0,112(s8)
    5030:	8fc20034 	lw	v0,52(s8)
    5034:	00000000 	nop
    5038:	00021043 	sra	v0,v0,0x1
    503c:	afc20034 	sw	v0,52(s8)
    5040:	8fc20024 	lw	v0,36(s8)
    5044:	00000000 	nop
    5048:	24420001 	addiu	v0,v0,1
    504c:	afc20024 	sw	v0,36(s8)
    5050:	8fc20034 	lw	v0,52(s8)
    5054:	00000000 	nop
    5058:	1440ffdc 	bnez	v0,4fcc <_dtoa_r+0x928>
    505c:	00000000 	nop
    5060:	8fc300ac 	lw	v1,172(s8)
    5064:	8fc200a8 	lw	v0,168(s8)
    5068:	00602821 	move	a1,v1
    506c:	00402021 	move	a0,v0
    5070:	8fc70074 	lw	a3,116(s8)
    5074:	8fc60070 	lw	a2,112(s8)
    5078:	0c004f61 	jal	13d84 <__divdf3>
    507c:	00000000 	nop
    5080:	afc300ac 	sw	v1,172(s8)
    5084:	afc200a8 	sw	v0,168(s8)
    5088:	08001468 	j	51a0 <_dtoa_r+0xafc>
    508c:	00000000 	nop
    5090:	8fc20038 	lw	v0,56(s8)
    5094:	00000000 	nop
    5098:	00021023 	negu	v0,v0
    509c:	afc2008c 	sw	v0,140(s8)
    50a0:	8fc2008c 	lw	v0,140(s8)
    50a4:	00000000 	nop
    50a8:	1040003d 	beqz	v0,51a0 <_dtoa_r+0xafc>
    50ac:	00000000 	nop
    50b0:	8fc500ac 	lw	a1,172(s8)
    50b4:	8fc400a8 	lw	a0,168(s8)
    50b8:	8fc2008c 	lw	v0,140(s8)
    50bc:	00000000 	nop
    50c0:	3043000f 	andi	v1,v0,0xf
    50c4:	3c020001 	lui	v0,0x1
    50c8:	000318c0 	sll	v1,v1,0x3
    50cc:	24424cd8 	addiu	v0,v0,19672
    50d0:	00621021 	addu	v0,v1,v0
    50d4:	8c430004 	lw	v1,4(v0)
    50d8:	8c420000 	lw	v0,0(v0)
    50dc:	00603821 	move	a3,v1
    50e0:	00403021 	move	a2,v0
    50e4:	0c004ea6 	jal	13a98 <__muldf3>
    50e8:	00000000 	nop
    50ec:	afc300ac 	sw	v1,172(s8)
    50f0:	afc200a8 	sw	v0,168(s8)
    50f4:	8fc2008c 	lw	v0,140(s8)
    50f8:	00000000 	nop
    50fc:	00021103 	sra	v0,v0,0x4
    5100:	afc20034 	sw	v0,52(s8)
    5104:	08001464 	j	5190 <_dtoa_r+0xaec>
    5108:	00000000 	nop
    510c:	8fc20034 	lw	v0,52(s8)
    5110:	00000000 	nop
    5114:	30420001 	andi	v0,v0,0x1
    5118:	10400015 	beqz	v0,5170 <_dtoa_r+0xacc>
    511c:	00000000 	nop
    5120:	8fc20028 	lw	v0,40(s8)
    5124:	00000000 	nop
    5128:	24420001 	addiu	v0,v0,1
    512c:	afc20028 	sw	v0,40(s8)
    5130:	8fc500ac 	lw	a1,172(s8)
    5134:	8fc400a8 	lw	a0,168(s8)
    5138:	3c020001 	lui	v0,0x1
    513c:	8fc30024 	lw	v1,36(s8)
    5140:	00000000 	nop
    5144:	000318c0 	sll	v1,v1,0x3
    5148:	24424da0 	addiu	v0,v0,19872
    514c:	00621021 	addu	v0,v1,v0
    5150:	8c430004 	lw	v1,4(v0)
    5154:	8c420000 	lw	v0,0(v0)
    5158:	00603821 	move	a3,v1
    515c:	00403021 	move	a2,v0
    5160:	0c004ea6 	jal	13a98 <__muldf3>
    5164:	00000000 	nop
    5168:	afc300ac 	sw	v1,172(s8)
    516c:	afc200a8 	sw	v0,168(s8)
    5170:	8fc20034 	lw	v0,52(s8)
    5174:	00000000 	nop
    5178:	00021043 	sra	v0,v0,0x1
    517c:	afc20034 	sw	v0,52(s8)
    5180:	8fc20024 	lw	v0,36(s8)
    5184:	00000000 	nop
    5188:	24420001 	addiu	v0,v0,1
    518c:	afc20024 	sw	v0,36(s8)
    5190:	8fc20034 	lw	v0,52(s8)
    5194:	00000000 	nop
    5198:	1440ffdc 	bnez	v0,510c <_dtoa_r+0xa68>
    519c:	00000000 	nop
    51a0:	8fc2003c 	lw	v0,60(s8)
    51a4:	00000000 	nop
    51a8:	1040002a 	beqz	v0,5254 <_dtoa_r+0xbb0>
    51ac:	00000000 	nop
    51b0:	8fc300ac 	lw	v1,172(s8)
    51b4:	8fc200a8 	lw	v0,168(s8)
    51b8:	00602821 	move	a1,v1
    51bc:	00402021 	move	a0,v0
    51c0:	8f87804c 	lw	a3,-32692(gp)
    51c4:	8f868048 	lw	a2,-32696(gp)
    51c8:	0c00503e 	jal	140f8 <__ltdf2>
    51cc:	00000000 	nop
    51d0:	04410020 	bgez	v0,5254 <_dtoa_r+0xbb0>
    51d4:	00000000 	nop
    51d8:	8fc2002c 	lw	v0,44(s8)
    51dc:	00000000 	nop
    51e0:	1840001c 	blez	v0,5254 <_dtoa_r+0xbb0>
    51e4:	00000000 	nop
    51e8:	8fc20030 	lw	v0,48(s8)
    51ec:	00000000 	nop
    51f0:	1c400003 	bgtz	v0,5200 <_dtoa_r+0xb5c>
    51f4:	00000000 	nop
    51f8:	080015dc 	j	5770 <_dtoa_r+0x10cc>
    51fc:	00000000 	nop
    5200:	8fc20030 	lw	v0,48(s8)
    5204:	00000000 	nop
    5208:	afc2002c 	sw	v0,44(s8)
    520c:	8fc20038 	lw	v0,56(s8)
    5210:	00000000 	nop
    5214:	2442ffff 	addiu	v0,v0,-1
    5218:	afc20038 	sw	v0,56(s8)
    521c:	8fc300ac 	lw	v1,172(s8)
    5220:	8fc200a8 	lw	v0,168(s8)
    5224:	00602821 	move	a1,v1
    5228:	00402021 	move	a0,v0
    522c:	8f878054 	lw	a3,-32684(gp)
    5230:	8f868050 	lw	a2,-32688(gp)
    5234:	0c004ea6 	jal	13a98 <__muldf3>
    5238:	00000000 	nop
    523c:	afc300ac 	sw	v1,172(s8)
    5240:	afc200a8 	sw	v0,168(s8)
    5244:	8fc20028 	lw	v0,40(s8)
    5248:	00000000 	nop
    524c:	24420001 	addiu	v0,v0,1
    5250:	afc20028 	sw	v0,40(s8)
    5254:	8fc40028 	lw	a0,40(s8)
    5258:	0c00507a 	jal	141e8 <__floatsidf>
    525c:	00000000 	nop
    5260:	00602821 	move	a1,v1
    5264:	00402021 	move	a0,v0
    5268:	8fc300ac 	lw	v1,172(s8)
    526c:	8fc200a8 	lw	v0,168(s8)
    5270:	00603821 	move	a3,v1
    5274:	00403021 	move	a2,v0
    5278:	0c004ea6 	jal	13a98 <__muldf3>
    527c:	00000000 	nop
    5280:	00602821 	move	a1,v1
    5284:	00402021 	move	a0,v0
    5288:	8f87805c 	lw	a3,-32676(gp)
    528c:	8f868058 	lw	a2,-32680(gp)
    5290:	0c004e77 	jal	139dc <__adddf3>
    5294:	00000000 	nop
    5298:	afc300bc 	sw	v1,188(s8)
    529c:	afc200b8 	sw	v0,184(s8)
    52a0:	8fc300b8 	lw	v1,184(s8)
    52a4:	3c02fcc0 	lui	v0,0xfcc0
    52a8:	00621021 	addu	v0,v1,v0
    52ac:	afc200b8 	sw	v0,184(s8)
    52b0:	8fc2002c 	lw	v0,44(s8)
    52b4:	00000000 	nop
    52b8:	1440002c 	bnez	v0,536c <_dtoa_r+0xcc8>
    52bc:	00000000 	nop
    52c0:	afc00068 	sw	zero,104(s8)
    52c4:	8fc20068 	lw	v0,104(s8)
    52c8:	00000000 	nop
    52cc:	afc2006c 	sw	v0,108(s8)
    52d0:	8fc300ac 	lw	v1,172(s8)
    52d4:	8fc200a8 	lw	v0,168(s8)
    52d8:	00602821 	move	a1,v1
    52dc:	00402021 	move	a0,v0
    52e0:	8f878064 	lw	a3,-32668(gp)
    52e4:	8f868060 	lw	a2,-32672(gp)
    52e8:	0c004e8d 	jal	13a34 <__subdf3>
    52ec:	00000000 	nop
    52f0:	afc300ac 	sw	v1,172(s8)
    52f4:	afc200a8 	sw	v0,168(s8)
    52f8:	8fc500ac 	lw	a1,172(s8)
    52fc:	8fc400a8 	lw	a0,168(s8)
    5300:	8fc300bc 	lw	v1,188(s8)
    5304:	8fc200b8 	lw	v0,184(s8)
    5308:	00603821 	move	a3,v1
    530c:	00403021 	move	a2,v0
    5310:	0c005020 	jal	14080 <__gtdf2>
    5314:	00000000 	nop
    5318:	18400003 	blez	v0,5328 <_dtoa_r+0xc84>
    531c:	00000000 	nop
    5320:	0800184c 	j	6130 <_dtoa_r+0x1a8c>
    5324:	00000000 	nop
    5328:	8fc500ac 	lw	a1,172(s8)
    532c:	8fc400a8 	lw	a0,168(s8)
    5330:	8fc300bc 	lw	v1,188(s8)
    5334:	8fc200b8 	lw	v0,184(s8)
    5338:	3c068000 	lui	a2,0x8000
    533c:	00468026 	xor	s0,v0,a2
    5340:	00608821 	move	s1,v1
    5344:	02203821 	move	a3,s1
    5348:	02003021 	move	a2,s0
    534c:	0c00503e 	jal	140f8 <__ltdf2>
    5350:	00000000 	nop
    5354:	04400003 	bltz	v0,5364 <_dtoa_r+0xcc0>
    5358:	00000000 	nop
    535c:	080015dc 	j	5770 <_dtoa_r+0x10cc>
    5360:	00000000 	nop
    5364:	08001846 	j	6118 <_dtoa_r+0x1a74>
    5368:	00000000 	nop
    536c:	8fc20040 	lw	v0,64(s8)
    5370:	00000000 	nop
    5374:	1040007e 	beqz	v0,5570 <_dtoa_r+0xecc>
    5378:	00000000 	nop
    537c:	8fc2002c 	lw	v0,44(s8)
    5380:	00000000 	nop
    5384:	2443ffff 	addiu	v1,v0,-1
    5388:	3c020001 	lui	v0,0x1
    538c:	000318c0 	sll	v1,v1,0x3
    5390:	24424cd8 	addiu	v0,v0,19672
    5394:	00621021 	addu	v0,v1,v0
    5398:	8c430004 	lw	v1,4(v0)
    539c:	8c420000 	lw	v0,0(v0)
    53a0:	8f85806c 	lw	a1,-32660(gp)
    53a4:	8f848068 	lw	a0,-32664(gp)
    53a8:	00603821 	move	a3,v1
    53ac:	00403021 	move	a2,v0
    53b0:	0c004f61 	jal	13d84 <__divdf3>
    53b4:	00000000 	nop
    53b8:	00602821 	move	a1,v1
    53bc:	00402021 	move	a0,v0
    53c0:	8fc300bc 	lw	v1,188(s8)
    53c4:	8fc200b8 	lw	v0,184(s8)
    53c8:	00603821 	move	a3,v1
    53cc:	00403021 	move	a2,v0
    53d0:	0c004e8d 	jal	13a34 <__subdf3>
    53d4:	00000000 	nop
    53d8:	afc300bc 	sw	v1,188(s8)
    53dc:	afc200b8 	sw	v0,184(s8)
    53e0:	afc00024 	sw	zero,36(s8)
    53e4:	8fc300ac 	lw	v1,172(s8)
    53e8:	8fc200a8 	lw	v0,168(s8)
    53ec:	00602821 	move	a1,v1
    53f0:	00402021 	move	a0,v0
    53f4:	0c0050b2 	jal	142c8 <__fixdfsi>
    53f8:	00000000 	nop
    53fc:	afc20090 	sw	v0,144(s8)
    5400:	8fd100ac 	lw	s1,172(s8)
    5404:	8fd000a8 	lw	s0,168(s8)
    5408:	8fc40090 	lw	a0,144(s8)
    540c:	0c00507a 	jal	141e8 <__floatsidf>
    5410:	00000000 	nop
    5414:	02202821 	move	a1,s1
    5418:	02002021 	move	a0,s0
    541c:	00603821 	move	a3,v1
    5420:	00403021 	move	a2,v0
    5424:	0c004e8d 	jal	13a34 <__subdf3>
    5428:	00000000 	nop
    542c:	afc300ac 	sw	v1,172(s8)
    5430:	afc200a8 	sw	v0,168(s8)
    5434:	8fc20078 	lw	v0,120(s8)
    5438:	00000000 	nop
    543c:	24430001 	addiu	v1,v0,1
    5440:	afc30078 	sw	v1,120(s8)
    5444:	8fc30090 	lw	v1,144(s8)
    5448:	00000000 	nop
    544c:	306300ff 	andi	v1,v1,0xff
    5450:	24630030 	addiu	v1,v1,48
    5454:	306300ff 	andi	v1,v1,0xff
    5458:	00031e00 	sll	v1,v1,0x18
    545c:	00031e03 	sra	v1,v1,0x18
    5460:	a0430000 	sb	v1,0(v0)
    5464:	8fc500ac 	lw	a1,172(s8)
    5468:	8fc400a8 	lw	a0,168(s8)
    546c:	8fc300bc 	lw	v1,188(s8)
    5470:	8fc200b8 	lw	v0,184(s8)
    5474:	00603821 	move	a3,v1
    5478:	00403021 	move	a2,v0
    547c:	0c00503e 	jal	140f8 <__ltdf2>
    5480:	00000000 	nop
    5484:	04410003 	bgez	v0,5494 <_dtoa_r+0xdf0>
    5488:	00000000 	nop
    548c:	08001a00 	j	6800 <_dtoa_r+0x215c>
    5490:	00000000 	nop
    5494:	8fc300ac 	lw	v1,172(s8)
    5498:	8fc200a8 	lw	v0,168(s8)
    549c:	8f85804c 	lw	a1,-32692(gp)
    54a0:	8f848048 	lw	a0,-32696(gp)
    54a4:	00603821 	move	a3,v1
    54a8:	00403021 	move	a2,v0
    54ac:	0c004e8d 	jal	13a34 <__subdf3>
    54b0:	00000000 	nop
    54b4:	00602821 	move	a1,v1
    54b8:	00402021 	move	a0,v0
    54bc:	8fc300bc 	lw	v1,188(s8)
    54c0:	8fc200b8 	lw	v0,184(s8)
    54c4:	00603821 	move	a3,v1
    54c8:	00403021 	move	a2,v0
    54cc:	0c00503e 	jal	140f8 <__ltdf2>
    54d0:	00000000 	nop
    54d4:	04410003 	bgez	v0,54e4 <_dtoa_r+0xe40>
    54d8:	00000000 	nop
    54dc:	08001676 	j	59d8 <_dtoa_r+0x1334>
    54e0:	00000000 	nop
    54e4:	8fc20024 	lw	v0,36(s8)
    54e8:	00000000 	nop
    54ec:	24420001 	addiu	v0,v0,1
    54f0:	afc20024 	sw	v0,36(s8)
    54f4:	8fc30024 	lw	v1,36(s8)
    54f8:	8fc2002c 	lw	v0,44(s8)
    54fc:	00000000 	nop
    5500:	0062102a 	slt	v0,v1,v0
    5504:	14400004 	bnez	v0,5518 <_dtoa_r+0xe74>
    5508:	00000000 	nop
    550c:	00000000 	nop
    5510:	080015dc 	j	5770 <_dtoa_r+0x10cc>
    5514:	00000000 	nop
    5518:	8fc300bc 	lw	v1,188(s8)
    551c:	8fc200b8 	lw	v0,184(s8)
    5520:	00602821 	move	a1,v1
    5524:	00402021 	move	a0,v0
    5528:	8f878054 	lw	a3,-32684(gp)
    552c:	8f868050 	lw	a2,-32688(gp)
    5530:	0c004ea6 	jal	13a98 <__muldf3>
    5534:	00000000 	nop
    5538:	afc300bc 	sw	v1,188(s8)
    553c:	afc200b8 	sw	v0,184(s8)
    5540:	8fc300ac 	lw	v1,172(s8)
    5544:	8fc200a8 	lw	v0,168(s8)
    5548:	00602821 	move	a1,v1
    554c:	00402021 	move	a0,v0
    5550:	8f878054 	lw	a3,-32684(gp)
    5554:	8f868050 	lw	a2,-32688(gp)
    5558:	0c004ea6 	jal	13a98 <__muldf3>
    555c:	00000000 	nop
    5560:	afc300ac 	sw	v1,172(s8)
    5564:	afc200a8 	sw	v0,168(s8)
    5568:	080014f9 	j	53e4 <_dtoa_r+0xd40>
    556c:	00000000 	nop
    5570:	8fc500bc 	lw	a1,188(s8)
    5574:	8fc400b8 	lw	a0,184(s8)
    5578:	8fc2002c 	lw	v0,44(s8)
    557c:	00000000 	nop
    5580:	2443ffff 	addiu	v1,v0,-1
    5584:	3c020001 	lui	v0,0x1
    5588:	000318c0 	sll	v1,v1,0x3
    558c:	24424cd8 	addiu	v0,v0,19672
    5590:	00621021 	addu	v0,v1,v0
    5594:	8c430004 	lw	v1,4(v0)
    5598:	8c420000 	lw	v0,0(v0)
    559c:	00603821 	move	a3,v1
    55a0:	00403021 	move	a2,v0
    55a4:	0c004ea6 	jal	13a98 <__muldf3>
    55a8:	00000000 	nop
    55ac:	afc300bc 	sw	v1,188(s8)
    55b0:	afc200b8 	sw	v0,184(s8)
    55b4:	24020001 	li	v0,1
    55b8:	afc20024 	sw	v0,36(s8)
    55bc:	8fc300ac 	lw	v1,172(s8)
    55c0:	8fc200a8 	lw	v0,168(s8)
    55c4:	00602821 	move	a1,v1
    55c8:	00402021 	move	a0,v0
    55cc:	0c0050b2 	jal	142c8 <__fixdfsi>
    55d0:	00000000 	nop
    55d4:	afc20090 	sw	v0,144(s8)
    55d8:	8fd100ac 	lw	s1,172(s8)
    55dc:	8fd000a8 	lw	s0,168(s8)
    55e0:	8fc40090 	lw	a0,144(s8)
    55e4:	0c00507a 	jal	141e8 <__floatsidf>
    55e8:	00000000 	nop
    55ec:	02202821 	move	a1,s1
    55f0:	02002021 	move	a0,s0
    55f4:	00603821 	move	a3,v1
    55f8:	00403021 	move	a2,v0
    55fc:	0c004e8d 	jal	13a34 <__subdf3>
    5600:	00000000 	nop
    5604:	afc300ac 	sw	v1,172(s8)
    5608:	afc200a8 	sw	v0,168(s8)
    560c:	8fc20078 	lw	v0,120(s8)
    5610:	00000000 	nop
    5614:	24430001 	addiu	v1,v0,1
    5618:	afc30078 	sw	v1,120(s8)
    561c:	8fc30090 	lw	v1,144(s8)
    5620:	00000000 	nop
    5624:	306300ff 	andi	v1,v1,0xff
    5628:	24630030 	addiu	v1,v1,48
    562c:	306300ff 	andi	v1,v1,0xff
    5630:	00031e00 	sll	v1,v1,0x18
    5634:	00031e03 	sra	v1,v1,0x18
    5638:	a0430000 	sb	v1,0(v0)
    563c:	8fc30024 	lw	v1,36(s8)
    5640:	8fc2002c 	lw	v0,44(s8)
    5644:	00000000 	nop
    5648:	14620039 	bne	v1,v0,5730 <_dtoa_r+0x108c>
    564c:	00000000 	nop
    5650:	8fd100ac 	lw	s1,172(s8)
    5654:	8fd000a8 	lw	s0,168(s8)
    5658:	8fc300bc 	lw	v1,188(s8)
    565c:	8fc200b8 	lw	v0,184(s8)
    5660:	00602821 	move	a1,v1
    5664:	00402021 	move	a0,v0
    5668:	8f87806c 	lw	a3,-32660(gp)
    566c:	8f868068 	lw	a2,-32664(gp)
    5670:	0c004e77 	jal	139dc <__adddf3>
    5674:	00000000 	nop
    5678:	02202821 	move	a1,s1
    567c:	02002021 	move	a0,s0
    5680:	00603821 	move	a3,v1
    5684:	00403021 	move	a2,v0
    5688:	0c005020 	jal	14080 <__gtdf2>
    568c:	00000000 	nop
    5690:	18400003 	blez	v0,56a0 <_dtoa_r+0xffc>
    5694:	00000000 	nop
    5698:	08001676 	j	59d8 <_dtoa_r+0x1334>
    569c:	00000000 	nop
    56a0:	8fd100ac 	lw	s1,172(s8)
    56a4:	8fd000a8 	lw	s0,168(s8)
    56a8:	8fc300bc 	lw	v1,188(s8)
    56ac:	8fc200b8 	lw	v0,184(s8)
    56b0:	8f85806c 	lw	a1,-32660(gp)
    56b4:	8f848068 	lw	a0,-32664(gp)
    56b8:	00603821 	move	a3,v1
    56bc:	00403021 	move	a2,v0
    56c0:	0c004e8d 	jal	13a34 <__subdf3>
    56c4:	00000000 	nop
    56c8:	02202821 	move	a1,s1
    56cc:	02002021 	move	a0,s0
    56d0:	00603821 	move	a3,v1
    56d4:	00403021 	move	a2,v0
    56d8:	0c00503e 	jal	140f8 <__ltdf2>
    56dc:	00000000 	nop
    56e0:	04400003 	bltz	v0,56f0 <_dtoa_r+0x104c>
    56e4:	00000000 	nop
    56e8:	080015dc 	j	5770 <_dtoa_r+0x10cc>
    56ec:	00000000 	nop
    56f0:	8fc20078 	lw	v0,120(s8)
    56f4:	00000000 	nop
    56f8:	2442ffff 	addiu	v0,v0,-1
    56fc:	afc20078 	sw	v0,120(s8)
    5700:	8fc20078 	lw	v0,120(s8)
    5704:	00000000 	nop
    5708:	80430000 	lb	v1,0(v0)
    570c:	24020030 	li	v0,48
    5710:	1062fff7 	beq	v1,v0,56f0 <_dtoa_r+0x104c>
    5714:	00000000 	nop
    5718:	8fc20078 	lw	v0,120(s8)
    571c:	00000000 	nop
    5720:	24420001 	addiu	v0,v0,1
    5724:	afc20078 	sw	v0,120(s8)
    5728:	08001a00 	j	6800 <_dtoa_r+0x215c>
    572c:	00000000 	nop
    5730:	8fc20024 	lw	v0,36(s8)
    5734:	00000000 	nop
    5738:	24420001 	addiu	v0,v0,1
    573c:	afc20024 	sw	v0,36(s8)
    5740:	8fc300ac 	lw	v1,172(s8)
    5744:	8fc200a8 	lw	v0,168(s8)
    5748:	00602821 	move	a1,v1
    574c:	00402021 	move	a0,v0
    5750:	8f878054 	lw	a3,-32684(gp)
    5754:	8f868050 	lw	a2,-32688(gp)
    5758:	0c004ea6 	jal	13a98 <__muldf3>
    575c:	00000000 	nop
    5760:	afc300ac 	sw	v1,172(s8)
    5764:	afc200a8 	sw	v0,168(s8)
    5768:	0800156f 	j	55bc <_dtoa_r+0xf18>
    576c:	00000000 	nop
    5770:	8fc20080 	lw	v0,128(s8)
    5774:	00000000 	nop
    5778:	afc20078 	sw	v0,120(s8)
    577c:	8fc300b4 	lw	v1,180(s8)
    5780:	8fc200b0 	lw	v0,176(s8)
    5784:	afc300ac 	sw	v1,172(s8)
    5788:	afc200a8 	sw	v0,168(s8)
    578c:	8fc20084 	lw	v0,132(s8)
    5790:	00000000 	nop
    5794:	afc20038 	sw	v0,56(s8)
    5798:	8fc20088 	lw	v0,136(s8)
    579c:	00000000 	nop
    57a0:	afc2002c 	sw	v0,44(s8)
    57a4:	8fc200a0 	lw	v0,160(s8)
    57a8:	00000000 	nop
    57ac:	044000d0 	bltz	v0,5af0 <_dtoa_r+0x144c>
    57b0:	00000000 	nop
    57b4:	8fc20038 	lw	v0,56(s8)
    57b8:	00000000 	nop
    57bc:	2842000f 	slti	v0,v0,15
    57c0:	104000cb 	beqz	v0,5af0 <_dtoa_r+0x144c>
    57c4:	00000000 	nop
    57c8:	3c020001 	lui	v0,0x1
    57cc:	8fc30038 	lw	v1,56(s8)
    57d0:	00000000 	nop
    57d4:	000318c0 	sll	v1,v1,0x3
    57d8:	24424cd8 	addiu	v0,v0,19672
    57dc:	00621021 	addu	v0,v1,v0
    57e0:	8c430004 	lw	v1,4(v0)
    57e4:	8c420000 	lw	v0,0(v0)
    57e8:	afc30074 	sw	v1,116(s8)
    57ec:	afc20070 	sw	v0,112(s8)
    57f0:	8fc200ec 	lw	v0,236(s8)
    57f4:	00000000 	nop
    57f8:	0441001f 	bgez	v0,5878 <_dtoa_r+0x11d4>
    57fc:	00000000 	nop
    5800:	8fc2002c 	lw	v0,44(s8)
    5804:	00000000 	nop
    5808:	1c40001b 	bgtz	v0,5878 <_dtoa_r+0x11d4>
    580c:	00000000 	nop
    5810:	afc00068 	sw	zero,104(s8)
    5814:	8fc20068 	lw	v0,104(s8)
    5818:	00000000 	nop
    581c:	afc2006c 	sw	v0,108(s8)
    5820:	8fc2002c 	lw	v0,44(s8)
    5824:	00000000 	nop
    5828:	0440023b 	bltz	v0,6118 <_dtoa_r+0x1a74>
    582c:	00000000 	nop
    5830:	8fd100ac 	lw	s1,172(s8)
    5834:	8fd000a8 	lw	s0,168(s8)
    5838:	8fc50074 	lw	a1,116(s8)
    583c:	8fc40070 	lw	a0,112(s8)
    5840:	8f878064 	lw	a3,-32668(gp)
    5844:	8f868060 	lw	a2,-32672(gp)
    5848:	0c004ea6 	jal	13a98 <__muldf3>
    584c:	00000000 	nop
    5850:	02202821 	move	a1,s1
    5854:	02002021 	move	a0,s0
    5858:	00603821 	move	a3,v1
    585c:	00403021 	move	a2,v0
    5860:	0c00505c 	jal	14170 <__ledf2>
    5864:	00000000 	nop
    5868:	1840022b 	blez	v0,6118 <_dtoa_r+0x1a74>
    586c:	00000000 	nop
    5870:	0800184c 	j	6130 <_dtoa_r+0x1a8c>
    5874:	00000000 	nop
    5878:	24020001 	li	v0,1
    587c:	afc20024 	sw	v0,36(s8)
    5880:	8fc300ac 	lw	v1,172(s8)
    5884:	8fc200a8 	lw	v0,168(s8)
    5888:	00602821 	move	a1,v1
    588c:	00402021 	move	a0,v0
    5890:	8fc70074 	lw	a3,116(s8)
    5894:	8fc60070 	lw	a2,112(s8)
    5898:	0c004f61 	jal	13d84 <__divdf3>
    589c:	00000000 	nop
    58a0:	00602821 	move	a1,v1
    58a4:	00402021 	move	a0,v0
    58a8:	0c0050b2 	jal	142c8 <__fixdfsi>
    58ac:	00000000 	nop
    58b0:	afc20090 	sw	v0,144(s8)
    58b4:	8fd100ac 	lw	s1,172(s8)
    58b8:	8fd000a8 	lw	s0,168(s8)
    58bc:	8fc40090 	lw	a0,144(s8)
    58c0:	0c00507a 	jal	141e8 <__floatsidf>
    58c4:	00000000 	nop
    58c8:	00602821 	move	a1,v1
    58cc:	00402021 	move	a0,v0
    58d0:	8fc70074 	lw	a3,116(s8)
    58d4:	8fc60070 	lw	a2,112(s8)
    58d8:	0c004ea6 	jal	13a98 <__muldf3>
    58dc:	00000000 	nop
    58e0:	02202821 	move	a1,s1
    58e4:	02002021 	move	a0,s0
    58e8:	00603821 	move	a3,v1
    58ec:	00403021 	move	a2,v0
    58f0:	0c004e8d 	jal	13a34 <__subdf3>
    58f4:	00000000 	nop
    58f8:	afc300ac 	sw	v1,172(s8)
    58fc:	afc200a8 	sw	v0,168(s8)
    5900:	8fc20078 	lw	v0,120(s8)
    5904:	00000000 	nop
    5908:	24430001 	addiu	v1,v0,1
    590c:	afc30078 	sw	v1,120(s8)
    5910:	8fc30090 	lw	v1,144(s8)
    5914:	00000000 	nop
    5918:	306300ff 	andi	v1,v1,0xff
    591c:	24630030 	addiu	v1,v1,48
    5920:	306300ff 	andi	v1,v1,0xff
    5924:	00031e00 	sll	v1,v1,0x18
    5928:	00031e03 	sra	v1,v1,0x18
    592c:	a0430000 	sb	v1,0(v0)
    5930:	8fc30024 	lw	v1,36(s8)
    5934:	8fc2002c 	lw	v0,44(s8)
    5938:	00000000 	nop
    593c:	1462004e 	bne	v1,v0,5a78 <_dtoa_r+0x13d4>
    5940:	00000000 	nop
    5944:	8fc300ac 	lw	v1,172(s8)
    5948:	8fc200a8 	lw	v0,168(s8)
    594c:	00602821 	move	a1,v1
    5950:	00402021 	move	a0,v0
    5954:	00603821 	move	a3,v1
    5958:	00403021 	move	a2,v0
    595c:	0c004e77 	jal	139dc <__adddf3>
    5960:	00000000 	nop
    5964:	afc300ac 	sw	v1,172(s8)
    5968:	afc200a8 	sw	v0,168(s8)
    596c:	8fc300ac 	lw	v1,172(s8)
    5970:	8fc200a8 	lw	v0,168(s8)
    5974:	00602821 	move	a1,v1
    5978:	00402021 	move	a0,v0
    597c:	8fc70074 	lw	a3,116(s8)
    5980:	8fc60070 	lw	a2,112(s8)
    5984:	0c005020 	jal	14080 <__gtdf2>
    5988:	00000000 	nop
    598c:	1c400012 	bgtz	v0,59d8 <_dtoa_r+0x1334>
    5990:	00000000 	nop
    5994:	8fc300ac 	lw	v1,172(s8)
    5998:	8fc200a8 	lw	v0,168(s8)
    599c:	00602821 	move	a1,v1
    59a0:	00402021 	move	a0,v0
    59a4:	8fc70074 	lw	a3,116(s8)
    59a8:	8fc60070 	lw	a2,112(s8)
    59ac:	0c004fe4 	jal	13f90 <__eqdf2>
    59b0:	00000000 	nop
    59b4:	10400003 	beqz	v0,59c4 <_dtoa_r+0x1320>
    59b8:	00000000 	nop
    59bc:	080016ba 	j	5ae8 <_dtoa_r+0x1444>
    59c0:	00000000 	nop
    59c4:	8fc20090 	lw	v0,144(s8)
    59c8:	00000000 	nop
    59cc:	30420001 	andi	v0,v0,0x1
    59d0:	10400027 	beqz	v0,5a70 <_dtoa_r+0x13cc>
    59d4:	00000000 	nop
    59d8:	08001686 	j	5a18 <_dtoa_r+0x1374>
    59dc:	00000000 	nop
    59e0:	8fc30078 	lw	v1,120(s8)
    59e4:	8fc20080 	lw	v0,128(s8)
    59e8:	00000000 	nop
    59ec:	1462000a 	bne	v1,v0,5a18 <_dtoa_r+0x1374>
    59f0:	00000000 	nop
    59f4:	8fc20038 	lw	v0,56(s8)
    59f8:	00000000 	nop
    59fc:	24420001 	addiu	v0,v0,1
    5a00:	afc20038 	sw	v0,56(s8)
    5a04:	8fc20078 	lw	v0,120(s8)
    5a08:	24030030 	li	v1,48
    5a0c:	a0430000 	sb	v1,0(v0)
    5a10:	08001690 	j	5a40 <_dtoa_r+0x139c>
    5a14:	00000000 	nop
    5a18:	8fc20078 	lw	v0,120(s8)
    5a1c:	00000000 	nop
    5a20:	2442ffff 	addiu	v0,v0,-1
    5a24:	afc20078 	sw	v0,120(s8)
    5a28:	8fc20078 	lw	v0,120(s8)
    5a2c:	00000000 	nop
    5a30:	80430000 	lb	v1,0(v0)
    5a34:	24020039 	li	v0,57
    5a38:	1062ffe9 	beq	v1,v0,59e0 <_dtoa_r+0x133c>
    5a3c:	00000000 	nop
    5a40:	8fc20078 	lw	v0,120(s8)
    5a44:	00000000 	nop
    5a48:	24430001 	addiu	v1,v0,1
    5a4c:	afc30078 	sw	v1,120(s8)
    5a50:	80430000 	lb	v1,0(v0)
    5a54:	00000000 	nop
    5a58:	24630001 	addiu	v1,v1,1
    5a5c:	00031e00 	sll	v1,v1,0x18
    5a60:	00031e03 	sra	v1,v1,0x18
    5a64:	a0430000 	sb	v1,0(v0)
    5a68:	080016ba 	j	5ae8 <_dtoa_r+0x1444>
    5a6c:	00000000 	nop
    5a70:	080016ba 	j	5ae8 <_dtoa_r+0x1444>
    5a74:	00000000 	nop
    5a78:	8fc300ac 	lw	v1,172(s8)
    5a7c:	8fc200a8 	lw	v0,168(s8)
    5a80:	00602821 	move	a1,v1
    5a84:	00402021 	move	a0,v0
    5a88:	8f878054 	lw	a3,-32684(gp)
    5a8c:	8f868050 	lw	a2,-32688(gp)
    5a90:	0c004ea6 	jal	13a98 <__muldf3>
    5a94:	00000000 	nop
    5a98:	afc300ac 	sw	v1,172(s8)
    5a9c:	afc200a8 	sw	v0,168(s8)
    5aa0:	8fc300ac 	lw	v1,172(s8)
    5aa4:	8fc200a8 	lw	v0,168(s8)
    5aa8:	00602821 	move	a1,v1
    5aac:	00402021 	move	a0,v0
    5ab0:	00003821 	move	a3,zero
    5ab4:	00003021 	move	a2,zero
    5ab8:	0c004fe4 	jal	13f90 <__eqdf2>
    5abc:	00000000 	nop
    5ac0:	14400003 	bnez	v0,5ad0 <_dtoa_r+0x142c>
    5ac4:	00000000 	nop
    5ac8:	080016ba 	j	5ae8 <_dtoa_r+0x1444>
    5acc:	00000000 	nop
    5ad0:	8fc20024 	lw	v0,36(s8)
    5ad4:	00000000 	nop
    5ad8:	24420001 	addiu	v0,v0,1
    5adc:	afc20024 	sw	v0,36(s8)
    5ae0:	08001620 	j	5880 <_dtoa_r+0x11dc>
    5ae4:	00000000 	nop
    5ae8:	08001a00 	j	6800 <_dtoa_r+0x215c>
    5aec:	00000000 	nop
    5af0:	8fc20018 	lw	v0,24(s8)
    5af4:	00000000 	nop
    5af8:	afc20044 	sw	v0,68(s8)
    5afc:	8fc2001c 	lw	v0,28(s8)
    5b00:	00000000 	nop
    5b04:	afc20048 	sw	v0,72(s8)
    5b08:	afc00064 	sw	zero,100(s8)
    5b0c:	8fc20064 	lw	v0,100(s8)
    5b10:	00000000 	nop
    5b14:	afc20068 	sw	v0,104(s8)
    5b18:	8fc20040 	lw	v0,64(s8)
    5b1c:	00000000 	nop
    5b20:	10400052 	beqz	v0,5c6c <_dtoa_r+0x15c8>
    5b24:	00000000 	nop
    5b28:	8fc200e8 	lw	v0,232(s8)
    5b2c:	00000000 	nop
    5b30:	28420002 	slti	v0,v0,2
    5b34:	10400010 	beqz	v0,5b78 <_dtoa_r+0x14d4>
    5b38:	00000000 	nop
    5b3c:	8fc2005c 	lw	v0,92(s8)
    5b40:	00000000 	nop
    5b44:	10400006 	beqz	v0,5b60 <_dtoa_r+0x14bc>
    5b48:	00000000 	nop
    5b4c:	8fc200a0 	lw	v0,160(s8)
    5b50:	00000000 	nop
    5b54:	24420433 	addiu	v0,v0,1075
    5b58:	080016db 	j	5b6c <_dtoa_r+0x14c8>
    5b5c:	00000000 	nop
    5b60:	8fc2009c 	lw	v0,156(s8)
    5b64:	24030036 	li	v1,54
    5b68:	00621023 	subu	v0,v1,v0
    5b6c:	afc20024 	sw	v0,36(s8)
    5b70:	0800170c 	j	5c30 <_dtoa_r+0x158c>
    5b74:	00000000 	nop
    5b78:	8fc2002c 	lw	v0,44(s8)
    5b7c:	00000000 	nop
    5b80:	2442ffff 	addiu	v0,v0,-1
    5b84:	afc20034 	sw	v0,52(s8)
    5b88:	8fc30048 	lw	v1,72(s8)
    5b8c:	8fc20034 	lw	v0,52(s8)
    5b90:	00000000 	nop
    5b94:	0062102a 	slt	v0,v1,v0
    5b98:	14400008 	bnez	v0,5bbc <_dtoa_r+0x1518>
    5b9c:	00000000 	nop
    5ba0:	8fc30048 	lw	v1,72(s8)
    5ba4:	8fc20034 	lw	v0,52(s8)
    5ba8:	00000000 	nop
    5bac:	00621023 	subu	v0,v1,v0
    5bb0:	afc20048 	sw	v0,72(s8)
    5bb4:	080016ff 	j	5bfc <_dtoa_r+0x1558>
    5bb8:	00000000 	nop
    5bbc:	8fc30034 	lw	v1,52(s8)
    5bc0:	8fc20048 	lw	v0,72(s8)
    5bc4:	00000000 	nop
    5bc8:	00621023 	subu	v0,v1,v0
    5bcc:	afc20034 	sw	v0,52(s8)
    5bd0:	8fc30050 	lw	v1,80(s8)
    5bd4:	8fc20034 	lw	v0,52(s8)
    5bd8:	00000000 	nop
    5bdc:	00621021 	addu	v0,v1,v0
    5be0:	afc20050 	sw	v0,80(s8)
    5be4:	8fc3001c 	lw	v1,28(s8)
    5be8:	8fc20034 	lw	v0,52(s8)
    5bec:	00000000 	nop
    5bf0:	00621021 	addu	v0,v1,v0
    5bf4:	afc2001c 	sw	v0,28(s8)
    5bf8:	afc00048 	sw	zero,72(s8)
    5bfc:	8fc2002c 	lw	v0,44(s8)
    5c00:	00000000 	nop
    5c04:	afc20024 	sw	v0,36(s8)
    5c08:	8fc20024 	lw	v0,36(s8)
    5c0c:	00000000 	nop
    5c10:	04410007 	bgez	v0,5c30 <_dtoa_r+0x158c>
    5c14:	00000000 	nop
    5c18:	8fc30044 	lw	v1,68(s8)
    5c1c:	8fc20024 	lw	v0,36(s8)
    5c20:	00000000 	nop
    5c24:	00621023 	subu	v0,v1,v0
    5c28:	afc20044 	sw	v0,68(s8)
    5c2c:	afc00024 	sw	zero,36(s8)
    5c30:	8fc30018 	lw	v1,24(s8)
    5c34:	8fc20024 	lw	v0,36(s8)
    5c38:	00000000 	nop
    5c3c:	00621021 	addu	v0,v1,v0
    5c40:	afc20018 	sw	v0,24(s8)
    5c44:	8fc3004c 	lw	v1,76(s8)
    5c48:	8fc20024 	lw	v0,36(s8)
    5c4c:	00000000 	nop
    5c50:	00621021 	addu	v0,v1,v0
    5c54:	afc2004c 	sw	v0,76(s8)
    5c58:	8fc400d8 	lw	a0,216(s8)
    5c5c:	24050001 	li	a1,1
    5c60:	0c002ad3 	jal	ab4c <__i2b>
    5c64:	00000000 	nop
    5c68:	afc20068 	sw	v0,104(s8)
    5c6c:	8fc20044 	lw	v0,68(s8)
    5c70:	00000000 	nop
    5c74:	1840001c 	blez	v0,5ce8 <_dtoa_r+0x1644>
    5c78:	00000000 	nop
    5c7c:	8fc2004c 	lw	v0,76(s8)
    5c80:	00000000 	nop
    5c84:	18400018 	blez	v0,5ce8 <_dtoa_r+0x1644>
    5c88:	00000000 	nop
    5c8c:	8fc30044 	lw	v1,68(s8)
    5c90:	8fc2004c 	lw	v0,76(s8)
    5c94:	00000000 	nop
    5c98:	0062202a 	slt	a0,v1,v0
    5c9c:	10800002 	beqz	a0,5ca8 <_dtoa_r+0x1604>
    5ca0:	00000000 	nop
    5ca4:	00601021 	move	v0,v1
    5ca8:	afc20024 	sw	v0,36(s8)
    5cac:	8fc30018 	lw	v1,24(s8)
    5cb0:	8fc20024 	lw	v0,36(s8)
    5cb4:	00000000 	nop
    5cb8:	00621023 	subu	v0,v1,v0
    5cbc:	afc20018 	sw	v0,24(s8)
    5cc0:	8fc30044 	lw	v1,68(s8)
    5cc4:	8fc20024 	lw	v0,36(s8)
    5cc8:	00000000 	nop
    5ccc:	00621023 	subu	v0,v1,v0
    5cd0:	afc20044 	sw	v0,68(s8)
    5cd4:	8fc3004c 	lw	v1,76(s8)
    5cd8:	8fc20024 	lw	v0,36(s8)
    5cdc:	00000000 	nop
    5ce0:	00621023 	subu	v0,v1,v0
    5ce4:	afc2004c 	sw	v0,76(s8)
    5ce8:	8fc2001c 	lw	v0,28(s8)
    5cec:	00000000 	nop
    5cf0:	18400033 	blez	v0,5dc0 <_dtoa_r+0x171c>
    5cf4:	00000000 	nop
    5cf8:	8fc20040 	lw	v0,64(s8)
    5cfc:	00000000 	nop
    5d00:	10400029 	beqz	v0,5da8 <_dtoa_r+0x1704>
    5d04:	00000000 	nop
    5d08:	8fc20048 	lw	v0,72(s8)
    5d0c:	00000000 	nop
    5d10:	18400014 	blez	v0,5d64 <_dtoa_r+0x16c0>
    5d14:	00000000 	nop
    5d18:	8fc400d8 	lw	a0,216(s8)
    5d1c:	8fc50068 	lw	a1,104(s8)
    5d20:	8fc60048 	lw	a2,72(s8)
    5d24:	0c002c4c 	jal	b130 <__pow5mult>
    5d28:	00000000 	nop
    5d2c:	afc20068 	sw	v0,104(s8)
    5d30:	8fc400d8 	lw	a0,216(s8)
    5d34:	8fc50068 	lw	a1,104(s8)
    5d38:	8fc60060 	lw	a2,96(s8)
    5d3c:	0c002aec 	jal	abb0 <__multiply>
    5d40:	00000000 	nop
    5d44:	afc20094 	sw	v0,148(s8)
    5d48:	8fc400d8 	lw	a0,216(s8)
    5d4c:	8fc50060 	lw	a1,96(s8)
    5d50:	0c002925 	jal	a494 <_Bfree>
    5d54:	00000000 	nop
    5d58:	8fc20094 	lw	v0,148(s8)
    5d5c:	00000000 	nop
    5d60:	afc20060 	sw	v0,96(s8)
    5d64:	8fc3001c 	lw	v1,28(s8)
    5d68:	8fc20048 	lw	v0,72(s8)
    5d6c:	00000000 	nop
    5d70:	00621023 	subu	v0,v1,v0
    5d74:	afc20034 	sw	v0,52(s8)
    5d78:	8fc20034 	lw	v0,52(s8)
    5d7c:	00000000 	nop
    5d80:	1040000f 	beqz	v0,5dc0 <_dtoa_r+0x171c>
    5d84:	00000000 	nop
    5d88:	8fc400d8 	lw	a0,216(s8)
    5d8c:	8fc50060 	lw	a1,96(s8)
    5d90:	8fc60034 	lw	a2,52(s8)
    5d94:	0c002c4c 	jal	b130 <__pow5mult>
    5d98:	00000000 	nop
    5d9c:	afc20060 	sw	v0,96(s8)
    5da0:	08001770 	j	5dc0 <_dtoa_r+0x171c>
    5da4:	00000000 	nop
    5da8:	8fc400d8 	lw	a0,216(s8)
    5dac:	8fc50060 	lw	a1,96(s8)
    5db0:	8fc6001c 	lw	a2,28(s8)
    5db4:	0c002c4c 	jal	b130 <__pow5mult>
    5db8:	00000000 	nop
    5dbc:	afc20060 	sw	v0,96(s8)
    5dc0:	8fc400d8 	lw	a0,216(s8)
    5dc4:	24050001 	li	a1,1
    5dc8:	0c002ad3 	jal	ab4c <__i2b>
    5dcc:	00000000 	nop
    5dd0:	afc2006c 	sw	v0,108(s8)
    5dd4:	8fc20050 	lw	v0,80(s8)
    5dd8:	00000000 	nop
    5ddc:	18400007 	blez	v0,5dfc <_dtoa_r+0x1758>
    5de0:	00000000 	nop
    5de4:	8fc400d8 	lw	a0,216(s8)
    5de8:	8fc5006c 	lw	a1,108(s8)
    5dec:	8fc60050 	lw	a2,80(s8)
    5df0:	0c002c4c 	jal	b130 <__pow5mult>
    5df4:	00000000 	nop
    5df8:	afc2006c 	sw	v0,108(s8)
    5dfc:	afc00054 	sw	zero,84(s8)
    5e00:	8fc200e8 	lw	v0,232(s8)
    5e04:	00000000 	nop
    5e08:	28420002 	slti	v0,v0,2
    5e0c:	1040001a 	beqz	v0,5e78 <_dtoa_r+0x17d4>
    5e10:	00000000 	nop
    5e14:	8fc200ac 	lw	v0,172(s8)
    5e18:	00000000 	nop
    5e1c:	14400016 	bnez	v0,5e78 <_dtoa_r+0x17d4>
    5e20:	00000000 	nop
    5e24:	8fc300a8 	lw	v1,168(s8)
    5e28:	3c02000f 	lui	v0,0xf
    5e2c:	3442ffff 	ori	v0,v0,0xffff
    5e30:	00621024 	and	v0,v1,v0
    5e34:	14400010 	bnez	v0,5e78 <_dtoa_r+0x17d4>
    5e38:	00000000 	nop
    5e3c:	8fc300a8 	lw	v1,168(s8)
    5e40:	3c027ff0 	lui	v0,0x7ff0
    5e44:	00621024 	and	v0,v1,v0
    5e48:	1040000b 	beqz	v0,5e78 <_dtoa_r+0x17d4>
    5e4c:	00000000 	nop
    5e50:	8fc20018 	lw	v0,24(s8)
    5e54:	00000000 	nop
    5e58:	24420001 	addiu	v0,v0,1
    5e5c:	afc20018 	sw	v0,24(s8)
    5e60:	8fc2004c 	lw	v0,76(s8)
    5e64:	00000000 	nop
    5e68:	24420001 	addiu	v0,v0,1
    5e6c:	afc2004c 	sw	v0,76(s8)
    5e70:	24020001 	li	v0,1
    5e74:	afc20054 	sw	v0,84(s8)
    5e78:	8fc20050 	lw	v0,80(s8)
    5e7c:	00000000 	nop
    5e80:	10400013 	beqz	v0,5ed0 <_dtoa_r+0x182c>
    5e84:	00000000 	nop
    5e88:	8fc2006c 	lw	v0,108(s8)
    5e8c:	00000000 	nop
    5e90:	8c420010 	lw	v0,16(v0)
    5e94:	00000000 	nop
    5e98:	2442ffff 	addiu	v0,v0,-1
    5e9c:	8fc3006c 	lw	v1,108(s8)
    5ea0:	24420004 	addiu	v0,v0,4
    5ea4:	00021080 	sll	v0,v0,0x2
    5ea8:	00621021 	addu	v0,v1,v0
    5eac:	8c420004 	lw	v0,4(v0)
    5eb0:	00000000 	nop
    5eb4:	00402021 	move	a0,v0
    5eb8:	0c002a55 	jal	a954 <__hi0bits>
    5ebc:	00000000 	nop
    5ec0:	24030020 	li	v1,32
    5ec4:	00621023 	subu	v0,v1,v0
    5ec8:	080017b5 	j	5ed4 <_dtoa_r+0x1830>
    5ecc:	00000000 	nop
    5ed0:	24020001 	li	v0,1
    5ed4:	8fc3004c 	lw	v1,76(s8)
    5ed8:	00000000 	nop
    5edc:	00431021 	addu	v0,v0,v1
    5ee0:	3042001f 	andi	v0,v0,0x1f
    5ee4:	afc20024 	sw	v0,36(s8)
    5ee8:	8fc20024 	lw	v0,36(s8)
    5eec:	00000000 	nop
    5ef0:	10400006 	beqz	v0,5f0c <_dtoa_r+0x1868>
    5ef4:	00000000 	nop
    5ef8:	24030020 	li	v1,32
    5efc:	8fc20024 	lw	v0,36(s8)
    5f00:	00000000 	nop
    5f04:	00621023 	subu	v0,v1,v0
    5f08:	afc20024 	sw	v0,36(s8)
    5f0c:	8fc20024 	lw	v0,36(s8)
    5f10:	00000000 	nop
    5f14:	28420005 	slti	v0,v0,5
    5f18:	14400016 	bnez	v0,5f74 <_dtoa_r+0x18d0>
    5f1c:	00000000 	nop
    5f20:	8fc20024 	lw	v0,36(s8)
    5f24:	00000000 	nop
    5f28:	2442fffc 	addiu	v0,v0,-4
    5f2c:	afc20024 	sw	v0,36(s8)
    5f30:	8fc30018 	lw	v1,24(s8)
    5f34:	8fc20024 	lw	v0,36(s8)
    5f38:	00000000 	nop
    5f3c:	00621021 	addu	v0,v1,v0
    5f40:	afc20018 	sw	v0,24(s8)
    5f44:	8fc30044 	lw	v1,68(s8)
    5f48:	8fc20024 	lw	v0,36(s8)
    5f4c:	00000000 	nop
    5f50:	00621021 	addu	v0,v1,v0
    5f54:	afc20044 	sw	v0,68(s8)
    5f58:	8fc3004c 	lw	v1,76(s8)
    5f5c:	8fc20024 	lw	v0,36(s8)
    5f60:	00000000 	nop
    5f64:	00621021 	addu	v0,v1,v0
    5f68:	afc2004c 	sw	v0,76(s8)
    5f6c:	080017f5 	j	5fd4 <_dtoa_r+0x1930>
    5f70:	00000000 	nop
    5f74:	8fc20024 	lw	v0,36(s8)
    5f78:	00000000 	nop
    5f7c:	28420004 	slti	v0,v0,4
    5f80:	10400014 	beqz	v0,5fd4 <_dtoa_r+0x1930>
    5f84:	00000000 	nop
    5f88:	8fc20024 	lw	v0,36(s8)
    5f8c:	00000000 	nop
    5f90:	2442001c 	addiu	v0,v0,28
    5f94:	afc20024 	sw	v0,36(s8)
    5f98:	8fc30018 	lw	v1,24(s8)
    5f9c:	8fc20024 	lw	v0,36(s8)
    5fa0:	00000000 	nop
    5fa4:	00621021 	addu	v0,v1,v0
    5fa8:	afc20018 	sw	v0,24(s8)
    5fac:	8fc30044 	lw	v1,68(s8)
    5fb0:	8fc20024 	lw	v0,36(s8)
    5fb4:	00000000 	nop
    5fb8:	00621021 	addu	v0,v1,v0
    5fbc:	afc20044 	sw	v0,68(s8)
    5fc0:	8fc3004c 	lw	v1,76(s8)
    5fc4:	8fc20024 	lw	v0,36(s8)
    5fc8:	00000000 	nop
    5fcc:	00621021 	addu	v0,v1,v0
    5fd0:	afc2004c 	sw	v0,76(s8)
    5fd4:	8fc20018 	lw	v0,24(s8)
    5fd8:	00000000 	nop
    5fdc:	18400007 	blez	v0,5ffc <_dtoa_r+0x1958>
    5fe0:	00000000 	nop
    5fe4:	8fc400d8 	lw	a0,216(s8)
    5fe8:	8fc50060 	lw	a1,96(s8)
    5fec:	8fc60018 	lw	a2,24(s8)
    5ff0:	0c002cd1 	jal	b344 <__lshift>
    5ff4:	00000000 	nop
    5ff8:	afc20060 	sw	v0,96(s8)
    5ffc:	8fc2004c 	lw	v0,76(s8)
    6000:	00000000 	nop
    6004:	18400007 	blez	v0,6024 <_dtoa_r+0x1980>
    6008:	00000000 	nop
    600c:	8fc400d8 	lw	a0,216(s8)
    6010:	8fc5006c 	lw	a1,108(s8)
    6014:	8fc6004c 	lw	a2,76(s8)
    6018:	0c002cd1 	jal	b344 <__lshift>
    601c:	00000000 	nop
    6020:	afc2006c 	sw	v0,108(s8)
    6024:	8fc2003c 	lw	v0,60(s8)
    6028:	00000000 	nop
    602c:	10400020 	beqz	v0,60b0 <_dtoa_r+0x1a0c>
    6030:	00000000 	nop
    6034:	8fc40060 	lw	a0,96(s8)
    6038:	8fc5006c 	lw	a1,108(s8)
    603c:	0c002d83 	jal	b60c <__mcmp>
    6040:	00000000 	nop
    6044:	0441001a 	bgez	v0,60b0 <_dtoa_r+0x1a0c>
    6048:	00000000 	nop
    604c:	8fc20038 	lw	v0,56(s8)
    6050:	00000000 	nop
    6054:	2442ffff 	addiu	v0,v0,-1
    6058:	afc20038 	sw	v0,56(s8)
    605c:	8fc400d8 	lw	a0,216(s8)
    6060:	8fc50060 	lw	a1,96(s8)
    6064:	2406000a 	li	a2,10
    6068:	00003821 	move	a3,zero
    606c:	0c00294c 	jal	a530 <__multadd>
    6070:	00000000 	nop
    6074:	afc20060 	sw	v0,96(s8)
    6078:	8fc20040 	lw	v0,64(s8)
    607c:	00000000 	nop
    6080:	10400008 	beqz	v0,60a4 <_dtoa_r+0x1a00>
    6084:	00000000 	nop
    6088:	8fc400d8 	lw	a0,216(s8)
    608c:	8fc50068 	lw	a1,104(s8)
    6090:	2406000a 	li	a2,10
    6094:	00003821 	move	a3,zero
    6098:	0c00294c 	jal	a530 <__multadd>
    609c:	00000000 	nop
    60a0:	afc20068 	sw	v0,104(s8)
    60a4:	8fc20030 	lw	v0,48(s8)
    60a8:	00000000 	nop
    60ac:	afc2002c 	sw	v0,44(s8)
    60b0:	8fc2002c 	lw	v0,44(s8)
    60b4:	00000000 	nop
    60b8:	1c400029 	bgtz	v0,6160 <_dtoa_r+0x1abc>
    60bc:	00000000 	nop
    60c0:	8fc200e8 	lw	v0,232(s8)
    60c4:	00000000 	nop
    60c8:	28420003 	slti	v0,v0,3
    60cc:	14400024 	bnez	v0,6160 <_dtoa_r+0x1abc>
    60d0:	00000000 	nop
    60d4:	8fc2002c 	lw	v0,44(s8)
    60d8:	00000000 	nop
    60dc:	0440000e 	bltz	v0,6118 <_dtoa_r+0x1a74>
    60e0:	00000000 	nop
    60e4:	8fc400d8 	lw	a0,216(s8)
    60e8:	8fc5006c 	lw	a1,108(s8)
    60ec:	24060005 	li	a2,5
    60f0:	00003821 	move	a3,zero
    60f4:	0c00294c 	jal	a530 <__multadd>
    60f8:	00000000 	nop
    60fc:	afc2006c 	sw	v0,108(s8)
    6100:	8fc40060 	lw	a0,96(s8)
    6104:	8fc5006c 	lw	a1,108(s8)
    6108:	0c002d83 	jal	b60c <__mcmp>
    610c:	00000000 	nop
    6110:	1c400007 	bgtz	v0,6130 <_dtoa_r+0x1a8c>
    6114:	00000000 	nop
    6118:	8fc200ec 	lw	v0,236(s8)
    611c:	00000000 	nop
    6120:	00021027 	nor	v0,zero,v0
    6124:	afc20038 	sw	v0,56(s8)
    6128:	080019e7 	j	679c <_dtoa_r+0x20f8>
    612c:	00000000 	nop
    6130:	8fc20078 	lw	v0,120(s8)
    6134:	00000000 	nop
    6138:	24430001 	addiu	v1,v0,1
    613c:	afc30078 	sw	v1,120(s8)
    6140:	24030031 	li	v1,49
    6144:	a0430000 	sb	v1,0(v0)
    6148:	8fc20038 	lw	v0,56(s8)
    614c:	00000000 	nop
    6150:	24420001 	addiu	v0,v0,1
    6154:	afc20038 	sw	v0,56(s8)
    6158:	080019e7 	j	679c <_dtoa_r+0x20f8>
    615c:	00000000 	nop
    6160:	8fc20040 	lw	v0,64(s8)
    6164:	00000000 	nop
    6168:	10400117 	beqz	v0,65c8 <_dtoa_r+0x1f24>
    616c:	00000000 	nop
    6170:	8fc20044 	lw	v0,68(s8)
    6174:	00000000 	nop
    6178:	18400007 	blez	v0,6198 <_dtoa_r+0x1af4>
    617c:	00000000 	nop
    6180:	8fc400d8 	lw	a0,216(s8)
    6184:	8fc50068 	lw	a1,104(s8)
    6188:	8fc60044 	lw	a2,68(s8)
    618c:	0c002cd1 	jal	b344 <__lshift>
    6190:	00000000 	nop
    6194:	afc20068 	sw	v0,104(s8)
    6198:	8fc20068 	lw	v0,104(s8)
    619c:	00000000 	nop
    61a0:	afc20064 	sw	v0,100(s8)
    61a4:	8fc20054 	lw	v0,84(s8)
    61a8:	00000000 	nop
    61ac:	1040001f 	beqz	v0,622c <_dtoa_r+0x1b88>
    61b0:	00000000 	nop
    61b4:	8fc20068 	lw	v0,104(s8)
    61b8:	00000000 	nop
    61bc:	8c420004 	lw	v0,4(v0)
    61c0:	8fc400d8 	lw	a0,216(s8)
    61c4:	00402821 	move	a1,v0
    61c8:	0c0028bd 	jal	a2f4 <_Balloc>
    61cc:	00000000 	nop
    61d0:	afc20068 	sw	v0,104(s8)
    61d4:	8fc20068 	lw	v0,104(s8)
    61d8:	00000000 	nop
    61dc:	2444000c 	addiu	a0,v0,12
    61e0:	8fc20064 	lw	v0,100(s8)
    61e4:	00000000 	nop
    61e8:	2443000c 	addiu	v1,v0,12
    61ec:	8fc20064 	lw	v0,100(s8)
    61f0:	00000000 	nop
    61f4:	8c420010 	lw	v0,16(v0)
    61f8:	00000000 	nop
    61fc:	24420002 	addiu	v0,v0,2
    6200:	00021080 	sll	v0,v0,0x2
    6204:	00602821 	move	a1,v1
    6208:	00403021 	move	a2,v0
    620c:	0c002723 	jal	9c8c <memcpy>
    6210:	00000000 	nop
    6214:	8fc400d8 	lw	a0,216(s8)
    6218:	8fc50068 	lw	a1,104(s8)
    621c:	24060001 	li	a2,1
    6220:	0c002cd1 	jal	b344 <__lshift>
    6224:	00000000 	nop
    6228:	afc20068 	sw	v0,104(s8)
    622c:	24020001 	li	v0,1
    6230:	afc20024 	sw	v0,36(s8)
    6234:	8fc40060 	lw	a0,96(s8)
    6238:	8fc5006c 	lw	a1,108(s8)
    623c:	0c001057 	jal	415c <quorem>
    6240:	00000000 	nop
    6244:	24420030 	addiu	v0,v0,48
    6248:	afc20020 	sw	v0,32(s8)
    624c:	8fc40060 	lw	a0,96(s8)
    6250:	8fc50064 	lw	a1,100(s8)
    6254:	0c002d83 	jal	b60c <__mcmp>
    6258:	00000000 	nop
    625c:	afc20034 	sw	v0,52(s8)
    6260:	8fc400d8 	lw	a0,216(s8)
    6264:	8fc5006c 	lw	a1,108(s8)
    6268:	8fc60068 	lw	a2,104(s8)
    626c:	0c002de6 	jal	b798 <__mdiff>
    6270:	00000000 	nop
    6274:	afc20098 	sw	v0,152(s8)
    6278:	8fc20098 	lw	v0,152(s8)
    627c:	00000000 	nop
    6280:	8c42000c 	lw	v0,12(v0)
    6284:	00000000 	nop
    6288:	14400007 	bnez	v0,62a8 <_dtoa_r+0x1c04>
    628c:	00000000 	nop
    6290:	8fc40060 	lw	a0,96(s8)
    6294:	8fc50098 	lw	a1,152(s8)
    6298:	0c002d83 	jal	b60c <__mcmp>
    629c:	00000000 	nop
    62a0:	080018ab 	j	62ac <_dtoa_r+0x1c08>
    62a4:	00000000 	nop
    62a8:	24020001 	li	v0,1
    62ac:	afc2008c 	sw	v0,140(s8)
    62b0:	8fc400d8 	lw	a0,216(s8)
    62b4:	8fc50098 	lw	a1,152(s8)
    62b8:	0c002925 	jal	a494 <_Bfree>
    62bc:	00000000 	nop
    62c0:	8fc2008c 	lw	v0,140(s8)
    62c4:	00000000 	nop
    62c8:	14400023 	bnez	v0,6358 <_dtoa_r+0x1cb4>
    62cc:	00000000 	nop
    62d0:	8fc200e8 	lw	v0,232(s8)
    62d4:	00000000 	nop
    62d8:	1440001f 	bnez	v0,6358 <_dtoa_r+0x1cb4>
    62dc:	00000000 	nop
    62e0:	8fc200ac 	lw	v0,172(s8)
    62e4:	00000000 	nop
    62e8:	30420001 	andi	v0,v0,0x1
    62ec:	1440001a 	bnez	v0,6358 <_dtoa_r+0x1cb4>
    62f0:	00000000 	nop
    62f4:	8fc30020 	lw	v1,32(s8)
    62f8:	24020039 	li	v0,57
    62fc:	14620003 	bne	v1,v0,630c <_dtoa_r+0x1c68>
    6300:	00000000 	nop
    6304:	0800191f 	j	647c <_dtoa_r+0x1dd8>
    6308:	00000000 	nop
    630c:	8fc20034 	lw	v0,52(s8)
    6310:	00000000 	nop
    6314:	18400005 	blez	v0,632c <_dtoa_r+0x1c88>
    6318:	00000000 	nop
    631c:	8fc20020 	lw	v0,32(s8)
    6320:	00000000 	nop
    6324:	24420001 	addiu	v0,v0,1
    6328:	afc20020 	sw	v0,32(s8)
    632c:	8fc20078 	lw	v0,120(s8)
    6330:	00000000 	nop
    6334:	24430001 	addiu	v1,v0,1
    6338:	afc30078 	sw	v1,120(s8)
    633c:	8fc30020 	lw	v1,32(s8)
    6340:	00000000 	nop
    6344:	00031e00 	sll	v1,v1,0x18
    6348:	00031e03 	sra	v1,v1,0x18
    634c:	a0430000 	sb	v1,0(v0)
    6350:	080019e7 	j	679c <_dtoa_r+0x20f8>
    6354:	00000000 	nop
    6358:	8fc20034 	lw	v0,52(s8)
    635c:	00000000 	nop
    6360:	0440000e 	bltz	v0,639c <_dtoa_r+0x1cf8>
    6364:	00000000 	nop
    6368:	8fc20034 	lw	v0,52(s8)
    636c:	00000000 	nop
    6370:	1440003a 	bnez	v0,645c <_dtoa_r+0x1db8>
    6374:	00000000 	nop
    6378:	8fc200e8 	lw	v0,232(s8)
    637c:	00000000 	nop
    6380:	14400036 	bnez	v0,645c <_dtoa_r+0x1db8>
    6384:	00000000 	nop
    6388:	8fc200ac 	lw	v0,172(s8)
    638c:	00000000 	nop
    6390:	30420001 	andi	v0,v0,0x1
    6394:	14400031 	bnez	v0,645c <_dtoa_r+0x1db8>
    6398:	00000000 	nop
    639c:	8fc2008c 	lw	v0,140(s8)
    63a0:	00000000 	nop
    63a4:	18400022 	blez	v0,6430 <_dtoa_r+0x1d8c>
    63a8:	00000000 	nop
    63ac:	8fc400d8 	lw	a0,216(s8)
    63b0:	8fc50060 	lw	a1,96(s8)
    63b4:	24060001 	li	a2,1
    63b8:	0c002cd1 	jal	b344 <__lshift>
    63bc:	00000000 	nop
    63c0:	afc20060 	sw	v0,96(s8)
    63c4:	8fc40060 	lw	a0,96(s8)
    63c8:	8fc5006c 	lw	a1,108(s8)
    63cc:	0c002d83 	jal	b60c <__mcmp>
    63d0:	00000000 	nop
    63d4:	afc2008c 	sw	v0,140(s8)
    63d8:	8fc2008c 	lw	v0,140(s8)
    63dc:	00000000 	nop
    63e0:	1c40000a 	bgtz	v0,640c <_dtoa_r+0x1d68>
    63e4:	00000000 	nop
    63e8:	8fc2008c 	lw	v0,140(s8)
    63ec:	00000000 	nop
    63f0:	1440000f 	bnez	v0,6430 <_dtoa_r+0x1d8c>
    63f4:	00000000 	nop
    63f8:	8fc20020 	lw	v0,32(s8)
    63fc:	00000000 	nop
    6400:	30420001 	andi	v0,v0,0x1
    6404:	1040000a 	beqz	v0,6430 <_dtoa_r+0x1d8c>
    6408:	00000000 	nop
    640c:	8fc20020 	lw	v0,32(s8)
    6410:	00000000 	nop
    6414:	24430001 	addiu	v1,v0,1
    6418:	afc30020 	sw	v1,32(s8)
    641c:	24030039 	li	v1,57
    6420:	14430003 	bne	v0,v1,6430 <_dtoa_r+0x1d8c>
    6424:	00000000 	nop
    6428:	0800191f 	j	647c <_dtoa_r+0x1dd8>
    642c:	00000000 	nop
    6430:	8fc20078 	lw	v0,120(s8)
    6434:	00000000 	nop
    6438:	24430001 	addiu	v1,v0,1
    643c:	afc30078 	sw	v1,120(s8)
    6440:	8fc30020 	lw	v1,32(s8)
    6444:	00000000 	nop
    6448:	00031e00 	sll	v1,v1,0x18
    644c:	00031e03 	sra	v1,v1,0x18
    6450:	a0430000 	sb	v1,0(v0)
    6454:	080019e7 	j	679c <_dtoa_r+0x20f8>
    6458:	00000000 	nop
    645c:	8fc2008c 	lw	v0,140(s8)
    6460:	00000000 	nop
    6464:	1840001b 	blez	v0,64d4 <_dtoa_r+0x1e30>
    6468:	00000000 	nop
    646c:	8fc30020 	lw	v1,32(s8)
    6470:	24020039 	li	v0,57
    6474:	14620009 	bne	v1,v0,649c <_dtoa_r+0x1df8>
    6478:	00000000 	nop
    647c:	8fc20078 	lw	v0,120(s8)
    6480:	00000000 	nop
    6484:	24430001 	addiu	v1,v0,1
    6488:	afc30078 	sw	v1,120(s8)
    648c:	24030039 	li	v1,57
    6490:	a0430000 	sb	v1,0(v0)
    6494:	080019b0 	j	66c0 <_dtoa_r+0x201c>
    6498:	00000000 	nop
    649c:	8fc20078 	lw	v0,120(s8)
    64a0:	00000000 	nop
    64a4:	24430001 	addiu	v1,v0,1
    64a8:	afc30078 	sw	v1,120(s8)
    64ac:	8fc30020 	lw	v1,32(s8)
    64b0:	00000000 	nop
    64b4:	306300ff 	andi	v1,v1,0xff
    64b8:	24630001 	addiu	v1,v1,1
    64bc:	306300ff 	andi	v1,v1,0xff
    64c0:	00031e00 	sll	v1,v1,0x18
    64c4:	00031e03 	sra	v1,v1,0x18
    64c8:	a0430000 	sb	v1,0(v0)
    64cc:	080019e7 	j	679c <_dtoa_r+0x20f8>
    64d0:	00000000 	nop
    64d4:	8fc20078 	lw	v0,120(s8)
    64d8:	00000000 	nop
    64dc:	24430001 	addiu	v1,v0,1
    64e0:	afc30078 	sw	v1,120(s8)
    64e4:	8fc30020 	lw	v1,32(s8)
    64e8:	00000000 	nop
    64ec:	00031e00 	sll	v1,v1,0x18
    64f0:	00031e03 	sra	v1,v1,0x18
    64f4:	a0430000 	sb	v1,0(v0)
    64f8:	8fc30024 	lw	v1,36(s8)
    64fc:	8fc2002c 	lw	v0,44(s8)
    6500:	00000000 	nop
    6504:	14620004 	bne	v1,v0,6518 <_dtoa_r+0x1e74>
    6508:	00000000 	nop
    650c:	00000000 	nop
    6510:	08001998 	j	6660 <_dtoa_r+0x1fbc>
    6514:	00000000 	nop
    6518:	8fc400d8 	lw	a0,216(s8)
    651c:	8fc50060 	lw	a1,96(s8)
    6520:	2406000a 	li	a2,10
    6524:	00003821 	move	a3,zero
    6528:	0c00294c 	jal	a530 <__multadd>
    652c:	00000000 	nop
    6530:	afc20060 	sw	v0,96(s8)
    6534:	8fc30064 	lw	v1,100(s8)
    6538:	8fc20068 	lw	v0,104(s8)
    653c:	00000000 	nop
    6540:	1462000d 	bne	v1,v0,6578 <_dtoa_r+0x1ed4>
    6544:	00000000 	nop
    6548:	8fc400d8 	lw	a0,216(s8)
    654c:	8fc50068 	lw	a1,104(s8)
    6550:	2406000a 	li	a2,10
    6554:	00003821 	move	a3,zero
    6558:	0c00294c 	jal	a530 <__multadd>
    655c:	00000000 	nop
    6560:	afc20068 	sw	v0,104(s8)
    6564:	8fc20068 	lw	v0,104(s8)
    6568:	00000000 	nop
    656c:	afc20064 	sw	v0,100(s8)
    6570:	0800196c 	j	65b0 <_dtoa_r+0x1f0c>
    6574:	00000000 	nop
    6578:	8fc400d8 	lw	a0,216(s8)
    657c:	8fc50064 	lw	a1,100(s8)
    6580:	2406000a 	li	a2,10
    6584:	00003821 	move	a3,zero
    6588:	0c00294c 	jal	a530 <__multadd>
    658c:	00000000 	nop
    6590:	afc20064 	sw	v0,100(s8)
    6594:	8fc400d8 	lw	a0,216(s8)
    6598:	8fc50068 	lw	a1,104(s8)
    659c:	2406000a 	li	a2,10
    65a0:	00003821 	move	a3,zero
    65a4:	0c00294c 	jal	a530 <__multadd>
    65a8:	00000000 	nop
    65ac:	afc20068 	sw	v0,104(s8)
    65b0:	8fc20024 	lw	v0,36(s8)
    65b4:	00000000 	nop
    65b8:	24420001 	addiu	v0,v0,1
    65bc:	afc20024 	sw	v0,36(s8)
    65c0:	0800188d 	j	6234 <_dtoa_r+0x1b90>
    65c4:	00000000 	nop
    65c8:	24020001 	li	v0,1
    65cc:	afc20024 	sw	v0,36(s8)
    65d0:	8fd00078 	lw	s0,120(s8)
    65d4:	00000000 	nop
    65d8:	26020001 	addiu	v0,s0,1
    65dc:	afc20078 	sw	v0,120(s8)
    65e0:	8fc40060 	lw	a0,96(s8)
    65e4:	8fc5006c 	lw	a1,108(s8)
    65e8:	0c001057 	jal	415c <quorem>
    65ec:	00000000 	nop
    65f0:	24420030 	addiu	v0,v0,48
    65f4:	afc20020 	sw	v0,32(s8)
    65f8:	8fc20020 	lw	v0,32(s8)
    65fc:	00000000 	nop
    6600:	00021600 	sll	v0,v0,0x18
    6604:	00021603 	sra	v0,v0,0x18
    6608:	a2020000 	sb	v0,0(s0)
    660c:	8fc30024 	lw	v1,36(s8)
    6610:	8fc2002c 	lw	v0,44(s8)
    6614:	00000000 	nop
    6618:	0062102a 	slt	v0,v1,v0
    661c:	14400003 	bnez	v0,662c <_dtoa_r+0x1f88>
    6620:	00000000 	nop
    6624:	08001998 	j	6660 <_dtoa_r+0x1fbc>
    6628:	00000000 	nop
    662c:	8fc400d8 	lw	a0,216(s8)
    6630:	8fc50060 	lw	a1,96(s8)
    6634:	2406000a 	li	a2,10
    6638:	00003821 	move	a3,zero
    663c:	0c00294c 	jal	a530 <__multadd>
    6640:	00000000 	nop
    6644:	afc20060 	sw	v0,96(s8)
    6648:	8fc20024 	lw	v0,36(s8)
    664c:	00000000 	nop
    6650:	24420001 	addiu	v0,v0,1
    6654:	afc20024 	sw	v0,36(s8)
    6658:	08001974 	j	65d0 <_dtoa_r+0x1f2c>
    665c:	00000000 	nop
    6660:	8fc400d8 	lw	a0,216(s8)
    6664:	8fc50060 	lw	a1,96(s8)
    6668:	24060001 	li	a2,1
    666c:	0c002cd1 	jal	b344 <__lshift>
    6670:	00000000 	nop
    6674:	afc20060 	sw	v0,96(s8)
    6678:	8fc40060 	lw	a0,96(s8)
    667c:	8fc5006c 	lw	a1,108(s8)
    6680:	0c002d83 	jal	b60c <__mcmp>
    6684:	00000000 	nop
    6688:	afc20034 	sw	v0,52(s8)
    668c:	8fc20034 	lw	v0,52(s8)
    6690:	00000000 	nop
    6694:	1c40000a 	bgtz	v0,66c0 <_dtoa_r+0x201c>
    6698:	00000000 	nop
    669c:	8fc20034 	lw	v0,52(s8)
    66a0:	00000000 	nop
    66a4:	1440002f 	bnez	v0,6764 <_dtoa_r+0x20c0>
    66a8:	00000000 	nop
    66ac:	8fc20020 	lw	v0,32(s8)
    66b0:	00000000 	nop
    66b4:	30420001 	andi	v0,v0,0x1
    66b8:	1040002a 	beqz	v0,6764 <_dtoa_r+0x20c0>
    66bc:	00000000 	nop
    66c0:	080019c3 	j	670c <_dtoa_r+0x2068>
    66c4:	00000000 	nop
    66c8:	8fc30078 	lw	v1,120(s8)
    66cc:	8fc20080 	lw	v0,128(s8)
    66d0:	00000000 	nop
    66d4:	1462000d 	bne	v1,v0,670c <_dtoa_r+0x2068>
    66d8:	00000000 	nop
    66dc:	8fc20038 	lw	v0,56(s8)
    66e0:	00000000 	nop
    66e4:	24420001 	addiu	v0,v0,1
    66e8:	afc20038 	sw	v0,56(s8)
    66ec:	8fc20078 	lw	v0,120(s8)
    66f0:	00000000 	nop
    66f4:	24430001 	addiu	v1,v0,1
    66f8:	afc30078 	sw	v1,120(s8)
    66fc:	24030031 	li	v1,49
    6700:	a0430000 	sb	v1,0(v0)
    6704:	080019e7 	j	679c <_dtoa_r+0x20f8>
    6708:	00000000 	nop
    670c:	8fc20078 	lw	v0,120(s8)
    6710:	00000000 	nop
    6714:	2442ffff 	addiu	v0,v0,-1
    6718:	afc20078 	sw	v0,120(s8)
    671c:	8fc20078 	lw	v0,120(s8)
    6720:	00000000 	nop
    6724:	80430000 	lb	v1,0(v0)
    6728:	24020039 	li	v0,57
    672c:	1062ffe6 	beq	v1,v0,66c8 <_dtoa_r+0x2024>
    6730:	00000000 	nop
    6734:	8fc20078 	lw	v0,120(s8)
    6738:	00000000 	nop
    673c:	24430001 	addiu	v1,v0,1
    6740:	afc30078 	sw	v1,120(s8)
    6744:	80430000 	lb	v1,0(v0)
    6748:	00000000 	nop
    674c:	24630001 	addiu	v1,v1,1
    6750:	00031e00 	sll	v1,v1,0x18
    6754:	00031e03 	sra	v1,v1,0x18
    6758:	a0430000 	sb	v1,0(v0)
    675c:	080019e7 	j	679c <_dtoa_r+0x20f8>
    6760:	00000000 	nop
    6764:	8fc20078 	lw	v0,120(s8)
    6768:	00000000 	nop
    676c:	2442ffff 	addiu	v0,v0,-1
    6770:	afc20078 	sw	v0,120(s8)
    6774:	8fc20078 	lw	v0,120(s8)
    6778:	00000000 	nop
    677c:	80430000 	lb	v1,0(v0)
    6780:	24020030 	li	v0,48
    6784:	1062fff7 	beq	v1,v0,6764 <_dtoa_r+0x20c0>
    6788:	00000000 	nop
    678c:	8fc20078 	lw	v0,120(s8)
    6790:	00000000 	nop
    6794:	24420001 	addiu	v0,v0,1
    6798:	afc20078 	sw	v0,120(s8)
    679c:	8fc400d8 	lw	a0,216(s8)
    67a0:	8fc5006c 	lw	a1,108(s8)
    67a4:	0c002925 	jal	a494 <_Bfree>
    67a8:	00000000 	nop
    67ac:	8fc20068 	lw	v0,104(s8)
    67b0:	00000000 	nop
    67b4:	10400012 	beqz	v0,6800 <_dtoa_r+0x215c>
    67b8:	00000000 	nop
    67bc:	8fc20064 	lw	v0,100(s8)
    67c0:	00000000 	nop
    67c4:	1040000a 	beqz	v0,67f0 <_dtoa_r+0x214c>
    67c8:	00000000 	nop
    67cc:	8fc30064 	lw	v1,100(s8)
    67d0:	8fc20068 	lw	v0,104(s8)
    67d4:	00000000 	nop
    67d8:	10620005 	beq	v1,v0,67f0 <_dtoa_r+0x214c>
    67dc:	00000000 	nop
    67e0:	8fc400d8 	lw	a0,216(s8)
    67e4:	8fc50064 	lw	a1,100(s8)
    67e8:	0c002925 	jal	a494 <_Bfree>
    67ec:	00000000 	nop
    67f0:	8fc400d8 	lw	a0,216(s8)
    67f4:	8fc50068 	lw	a1,104(s8)
    67f8:	0c002925 	jal	a494 <_Bfree>
    67fc:	00000000 	nop
    6800:	8fc400d8 	lw	a0,216(s8)
    6804:	8fc50060 	lw	a1,96(s8)
    6808:	0c002925 	jal	a494 <_Bfree>
    680c:	00000000 	nop
    6810:	8fc20078 	lw	v0,120(s8)
    6814:	00000000 	nop
    6818:	a0400000 	sb	zero,0(v0)
    681c:	8fc20038 	lw	v0,56(s8)
    6820:	00000000 	nop
    6824:	24430001 	addiu	v1,v0,1
    6828:	8fc200f0 	lw	v0,240(s8)
    682c:	00000000 	nop
    6830:	ac430000 	sw	v1,0(v0)
    6834:	8fc200f8 	lw	v0,248(s8)
    6838:	00000000 	nop
    683c:	10400005 	beqz	v0,6854 <_dtoa_r+0x21b0>
    6840:	00000000 	nop
    6844:	8fc200f8 	lw	v0,248(s8)
    6848:	8fc30078 	lw	v1,120(s8)
    684c:	00000000 	nop
    6850:	ac430000 	sw	v1,0(v0)
    6854:	8fc20080 	lw	v0,128(s8)
    6858:	03c0e821 	move	sp,s8
    685c:	8fbf00d4 	lw	ra,212(sp)
    6860:	8fbe00d0 	lw	s8,208(sp)
    6864:	8fb300cc 	lw	s3,204(sp)
    6868:	8fb200c8 	lw	s2,200(sp)
    686c:	8fb100c4 	lw	s1,196(sp)
    6870:	8fb000c0 	lw	s0,192(sp)
    6874:	27bd00d8 	addiu	sp,sp,216
    6878:	03e00008 	jr	ra
    687c:	00000000 	nop

00006880 <__sflush_r>:
    6880:	27bdffc8 	addiu	sp,sp,-56
    6884:	afbf0034 	sw	ra,52(sp)
    6888:	afbe0030 	sw	s8,48(sp)
    688c:	afb3002c 	sw	s3,44(sp)
    6890:	afb20028 	sw	s2,40(sp)
    6894:	afb10024 	sw	s1,36(sp)
    6898:	afb00020 	sw	s0,32(sp)
    689c:	03a0f021 	move	s8,sp
    68a0:	afc40038 	sw	a0,56(s8)
    68a4:	00a08021 	move	s0,a1
    68a8:	8602000c 	lh	v0,12(s0)
    68ac:	00000000 	nop
    68b0:	00409021 	move	s2,v0
    68b4:	32420008 	andi	v0,s2,0x8
    68b8:	144000c9 	bnez	v0,6be0 <__sflush_r+0x360>
    68bc:	00000000 	nop
    68c0:	8602000c 	lh	v0,12(s0)
    68c4:	00000000 	nop
    68c8:	34420800 	ori	v0,v0,0x800
    68cc:	00021400 	sll	v0,v0,0x10
    68d0:	00021403 	sra	v0,v0,0x10
    68d4:	a602000c 	sh	v0,12(s0)
    68d8:	8e020004 	lw	v0,4(s0)
    68dc:	00000000 	nop
    68e0:	1c400005 	bgtz	v0,68f8 <__sflush_r+0x78>
    68e4:	00000000 	nop
    68e8:	8e02003c 	lw	v0,60(s0)
    68ec:	00000000 	nop
    68f0:	184000b8 	blez	v0,6bd4 <__sflush_r+0x354>
    68f4:	00000000 	nop
    68f8:	8e020028 	lw	v0,40(s0)
    68fc:	00000000 	nop
    6900:	104000b4 	beqz	v0,6bd4 <__sflush_r+0x354>
    6904:	00000000 	nop
    6908:	8fc20038 	lw	v0,56(s8)
    690c:	00000000 	nop
    6910:	8c420000 	lw	v0,0(v0)
    6914:	00000000 	nop
    6918:	afc20018 	sw	v0,24(s8)
    691c:	8fc20038 	lw	v0,56(s8)
    6920:	00000000 	nop
    6924:	ac400000 	sw	zero,0(v0)
    6928:	8602000c 	lh	v0,12(s0)
    692c:	00000000 	nop
    6930:	3042ffff 	andi	v0,v0,0xffff
    6934:	30421000 	andi	v0,v0,0x1000
    6938:	10400006 	beqz	v0,6954 <__sflush_r+0xd4>
    693c:	00000000 	nop
    6940:	8e020050 	lw	v0,80(s0)
    6944:	00000000 	nop
    6948:	afc20010 	sw	v0,16(s8)
    694c:	08001a86 	j	6a18 <__sflush_r+0x198>
    6950:	00000000 	nop
    6954:	8e020028 	lw	v0,40(s0)
    6958:	8e03001c 	lw	v1,28(s0)
    695c:	8fc40038 	lw	a0,56(s8)
    6960:	00602821 	move	a1,v1
    6964:	00003021 	move	a2,zero
    6968:	24070001 	li	a3,1
    696c:	0040f809 	jalr	v0
    6970:	00000000 	nop
    6974:	afc20010 	sw	v0,16(s8)
    6978:	8fc30010 	lw	v1,16(s8)
    697c:	2402ffff 	li	v0,-1
    6980:	14620025 	bne	v1,v0,6a18 <__sflush_r+0x198>
    6984:	00000000 	nop
    6988:	8fc20038 	lw	v0,56(s8)
    698c:	00000000 	nop
    6990:	8c420000 	lw	v0,0(v0)
    6994:	00000000 	nop
    6998:	1040001f 	beqz	v0,6a18 <__sflush_r+0x198>
    699c:	00000000 	nop
    69a0:	2402ffff 	li	v0,-1
    69a4:	afc20014 	sw	v0,20(s8)
    69a8:	8fc20038 	lw	v0,56(s8)
    69ac:	00000000 	nop
    69b0:	8c430000 	lw	v1,0(v0)
    69b4:	2402001d 	li	v0,29
    69b8:	10620007 	beq	v1,v0,69d8 <__sflush_r+0x158>
    69bc:	00000000 	nop
    69c0:	8fc20038 	lw	v0,56(s8)
    69c4:	00000000 	nop
    69c8:	8c430000 	lw	v1,0(v0)
    69cc:	24020016 	li	v0,22
    69d0:	14620008 	bne	v1,v0,69f4 <__sflush_r+0x174>
    69d4:	00000000 	nop
    69d8:	afc00014 	sw	zero,20(s8)
    69dc:	8fc20038 	lw	v0,56(s8)
    69e0:	8fc30018 	lw	v1,24(s8)
    69e4:	00000000 	nop
    69e8:	ac430000 	sw	v1,0(v0)
    69ec:	08001a83 	j	6a0c <__sflush_r+0x18c>
    69f0:	00000000 	nop
    69f4:	8602000c 	lh	v0,12(s0)
    69f8:	00000000 	nop
    69fc:	34420040 	ori	v0,v0,0x40
    6a00:	00021400 	sll	v0,v0,0x10
    6a04:	00021403 	sra	v0,v0,0x10
    6a08:	a602000c 	sh	v0,12(s0)
    6a0c:	8fc20014 	lw	v0,20(s8)
    6a10:	08001b29 	j	6ca4 <__sflush_r+0x424>
    6a14:	00000000 	nop
    6a18:	8602000c 	lh	v0,12(s0)
    6a1c:	00000000 	nop
    6a20:	3042ffff 	andi	v0,v0,0xffff
    6a24:	30420004 	andi	v0,v0,0x4
    6a28:	1040000f 	beqz	v0,6a68 <__sflush_r+0x1e8>
    6a2c:	00000000 	nop
    6a30:	8e020004 	lw	v0,4(s0)
    6a34:	8fc30010 	lw	v1,16(s8)
    6a38:	00000000 	nop
    6a3c:	00621023 	subu	v0,v1,v0
    6a40:	afc20010 	sw	v0,16(s8)
    6a44:	8e020030 	lw	v0,48(s0)
    6a48:	00000000 	nop
    6a4c:	10400006 	beqz	v0,6a68 <__sflush_r+0x1e8>
    6a50:	00000000 	nop
    6a54:	8e02003c 	lw	v0,60(s0)
    6a58:	8fc30010 	lw	v1,16(s8)
    6a5c:	00000000 	nop
    6a60:	00621023 	subu	v0,v1,v0
    6a64:	afc20010 	sw	v0,16(s8)
    6a68:	8e020028 	lw	v0,40(s0)
    6a6c:	8e03001c 	lw	v1,28(s0)
    6a70:	8fc40038 	lw	a0,56(s8)
    6a74:	00602821 	move	a1,v1
    6a78:	8fc60010 	lw	a2,16(s8)
    6a7c:	00003821 	move	a3,zero
    6a80:	0040f809 	jalr	v0
    6a84:	00000000 	nop
    6a88:	afc20010 	sw	v0,16(s8)
    6a8c:	8fc30010 	lw	v1,16(s8)
    6a90:	2402ffff 	li	v0,-1
    6a94:	14620013 	bne	v1,v0,6ae4 <__sflush_r+0x264>
    6a98:	00000000 	nop
    6a9c:	8fc20038 	lw	v0,56(s8)
    6aa0:	00000000 	nop
    6aa4:	8c420000 	lw	v0,0(v0)
    6aa8:	00000000 	nop
    6aac:	1040000d 	beqz	v0,6ae4 <__sflush_r+0x264>
    6ab0:	00000000 	nop
    6ab4:	8fc20038 	lw	v0,56(s8)
    6ab8:	00000000 	nop
    6abc:	8c430000 	lw	v1,0(v0)
    6ac0:	2402001d 	li	v0,29
    6ac4:	10620007 	beq	v1,v0,6ae4 <__sflush_r+0x264>
    6ac8:	00000000 	nop
    6acc:	8fc20038 	lw	v0,56(s8)
    6ad0:	00000000 	nop
    6ad4:	8c430000 	lw	v1,0(v0)
    6ad8:	24020016 	li	v0,22
    6adc:	14620034 	bne	v1,v0,6bb0 <__sflush_r+0x330>
    6ae0:	00000000 	nop
    6ae4:	8603000c 	lh	v1,12(s0)
    6ae8:	2402f7ff 	li	v0,-2049
    6aec:	00621024 	and	v0,v1,v0
    6af0:	00021400 	sll	v0,v0,0x10
    6af4:	00021403 	sra	v0,v0,0x10
    6af8:	a602000c 	sh	v0,12(s0)
    6afc:	ae000004 	sw	zero,4(s0)
    6b00:	8e020010 	lw	v0,16(s0)
    6b04:	00000000 	nop
    6b08:	ae020000 	sw	v0,0(s0)
    6b0c:	8602000c 	lh	v0,12(s0)
    6b10:	00000000 	nop
    6b14:	3042ffff 	andi	v0,v0,0xffff
    6b18:	30421000 	andi	v0,v0,0x1000
    6b1c:	1040000e 	beqz	v0,6b58 <__sflush_r+0x2d8>
    6b20:	00000000 	nop
    6b24:	8fc30010 	lw	v1,16(s8)
    6b28:	2402ffff 	li	v0,-1
    6b2c:	14620007 	bne	v1,v0,6b4c <__sflush_r+0x2cc>
    6b30:	00000000 	nop
    6b34:	8fc20038 	lw	v0,56(s8)
    6b38:	00000000 	nop
    6b3c:	8c420000 	lw	v0,0(v0)
    6b40:	00000000 	nop
    6b44:	14400004 	bnez	v0,6b58 <__sflush_r+0x2d8>
    6b48:	00000000 	nop
    6b4c:	8fc20010 	lw	v0,16(s8)
    6b50:	00000000 	nop
    6b54:	ae020050 	sw	v0,80(s0)
    6b58:	8fc20038 	lw	v0,56(s8)
    6b5c:	8fc30018 	lw	v1,24(s8)
    6b60:	00000000 	nop
    6b64:	ac430000 	sw	v1,0(v0)
    6b68:	8e020030 	lw	v0,48(s0)
    6b6c:	00000000 	nop
    6b70:	1040000d 	beqz	v0,6ba8 <__sflush_r+0x328>
    6b74:	00000000 	nop
    6b78:	8e030030 	lw	v1,48(s0)
    6b7c:	26020040 	addiu	v0,s0,64
    6b80:	10620006 	beq	v1,v0,6b9c <__sflush_r+0x31c>
    6b84:	00000000 	nop
    6b88:	8e020030 	lw	v0,48(s0)
    6b8c:	8fc40038 	lw	a0,56(s8)
    6b90:	00402821 	move	a1,v0
    6b94:	0c001d59 	jal	7564 <_free_r>
    6b98:	00000000 	nop
    6b9c:	ae000030 	sw	zero,48(s0)
    6ba0:	08001af5 	j	6bd4 <__sflush_r+0x354>
    6ba4:	00000000 	nop
    6ba8:	08001af5 	j	6bd4 <__sflush_r+0x354>
    6bac:	00000000 	nop
    6bb0:	8602000c 	lh	v0,12(s0)
    6bb4:	00000000 	nop
    6bb8:	34420040 	ori	v0,v0,0x40
    6bbc:	00021400 	sll	v0,v0,0x10
    6bc0:	00021403 	sra	v0,v0,0x10
    6bc4:	a602000c 	sh	v0,12(s0)
    6bc8:	2402ffff 	li	v0,-1
    6bcc:	08001b29 	j	6ca4 <__sflush_r+0x424>
    6bd0:	00000000 	nop
    6bd4:	00001021 	move	v0,zero
    6bd8:	08001b29 	j	6ca4 <__sflush_r+0x424>
    6bdc:	00000000 	nop
    6be0:	8e110010 	lw	s1,16(s0)
    6be4:	00000000 	nop
    6be8:	16200004 	bnez	s1,6bfc <__sflush_r+0x37c>
    6bec:	00000000 	nop
    6bf0:	00001021 	move	v0,zero
    6bf4:	08001b29 	j	6ca4 <__sflush_r+0x424>
    6bf8:	00000000 	nop
    6bfc:	8e020000 	lw	v0,0(s0)
    6c00:	00000000 	nop
    6c04:	00401821 	move	v1,v0
    6c08:	02201021 	move	v0,s1
    6c0c:	00629823 	subu	s3,v1,v0
    6c10:	ae110000 	sw	s1,0(s0)
    6c14:	32420003 	andi	v0,s2,0x3
    6c18:	14400004 	bnez	v0,6c2c <__sflush_r+0x3ac>
    6c1c:	00000000 	nop
    6c20:	8e020014 	lw	v0,20(s0)
    6c24:	08001b0c 	j	6c30 <__sflush_r+0x3b0>
    6c28:	00000000 	nop
    6c2c:	00001021 	move	v0,zero
    6c30:	ae020008 	sw	v0,8(s0)
    6c34:	08001b26 	j	6c98 <__sflush_r+0x418>
    6c38:	00000000 	nop
    6c3c:	8e020024 	lw	v0,36(s0)
    6c40:	8e03001c 	lw	v1,28(s0)
    6c44:	8fc40038 	lw	a0,56(s8)
    6c48:	00602821 	move	a1,v1
    6c4c:	02203021 	move	a2,s1
    6c50:	02603821 	move	a3,s3
    6c54:	0040f809 	jalr	v0
    6c58:	00000000 	nop
    6c5c:	00409021 	move	s2,v0
    6c60:	1e40000a 	bgtz	s2,6c8c <__sflush_r+0x40c>
    6c64:	00000000 	nop
    6c68:	8602000c 	lh	v0,12(s0)
    6c6c:	00000000 	nop
    6c70:	34420040 	ori	v0,v0,0x40
    6c74:	00021400 	sll	v0,v0,0x10
    6c78:	00021403 	sra	v0,v0,0x10
    6c7c:	a602000c 	sh	v0,12(s0)
    6c80:	2402ffff 	li	v0,-1
    6c84:	08001b29 	j	6ca4 <__sflush_r+0x424>
    6c88:	00000000 	nop
    6c8c:	02401021 	move	v0,s2
    6c90:	02228821 	addu	s1,s1,v0
    6c94:	02729823 	subu	s3,s3,s2
    6c98:	1e60ffe8 	bgtz	s3,6c3c <__sflush_r+0x3bc>
    6c9c:	00000000 	nop
    6ca0:	00001021 	move	v0,zero
    6ca4:	03c0e821 	move	sp,s8
    6ca8:	8fbf0034 	lw	ra,52(sp)
    6cac:	8fbe0030 	lw	s8,48(sp)
    6cb0:	8fb3002c 	lw	s3,44(sp)
    6cb4:	8fb20028 	lw	s2,40(sp)
    6cb8:	8fb10024 	lw	s1,36(sp)
    6cbc:	8fb00020 	lw	s0,32(sp)
    6cc0:	27bd0038 	addiu	sp,sp,56
    6cc4:	03e00008 	jr	ra
    6cc8:	00000000 	nop

00006ccc <_fflush_r>:
    6ccc:	27bdffd8 	addiu	sp,sp,-40
    6cd0:	afbf0024 	sw	ra,36(sp)
    6cd4:	afbe0020 	sw	s8,32(sp)
    6cd8:	afb0001c 	sw	s0,28(sp)
    6cdc:	03a0f021 	move	s8,sp
    6ce0:	afc40028 	sw	a0,40(s8)
    6ce4:	00a08021 	move	s0,a1
    6ce8:	8fc20028 	lw	v0,40(s8)
    6cec:	00000000 	nop
    6cf0:	1040000a 	beqz	v0,6d1c <_fflush_r+0x50>
    6cf4:	00000000 	nop
    6cf8:	8fc20028 	lw	v0,40(s8)
    6cfc:	00000000 	nop
    6d00:	8c420038 	lw	v0,56(v0)
    6d04:	00000000 	nop
    6d08:	14400004 	bnez	v0,6d1c <_fflush_r+0x50>
    6d0c:	00000000 	nop
    6d10:	8fc40028 	lw	a0,40(s8)
    6d14:	0c001cb5 	jal	72d4 <__sinit>
    6d18:	00000000 	nop
    6d1c:	8602000c 	lh	v0,12(s0)
    6d20:	00000000 	nop
    6d24:	14400004 	bnez	v0,6d38 <_fflush_r+0x6c>
    6d28:	00000000 	nop
    6d2c:	00001021 	move	v0,zero
    6d30:	08001b54 	j	6d50 <_fflush_r+0x84>
    6d34:	00000000 	nop
    6d38:	8fc40028 	lw	a0,40(s8)
    6d3c:	02002821 	move	a1,s0
    6d40:	0c001a20 	jal	6880 <__sflush_r>
    6d44:	00000000 	nop
    6d48:	afc20010 	sw	v0,16(s8)
    6d4c:	8fc20010 	lw	v0,16(s8)
    6d50:	03c0e821 	move	sp,s8
    6d54:	8fbf0024 	lw	ra,36(sp)
    6d58:	8fbe0020 	lw	s8,32(sp)
    6d5c:	8fb0001c 	lw	s0,28(sp)
    6d60:	27bd0028 	addiu	sp,sp,40
    6d64:	03e00008 	jr	ra
    6d68:	00000000 	nop

00006d6c <fflush>:
    6d6c:	27bdffe8 	addiu	sp,sp,-24
    6d70:	afbf0014 	sw	ra,20(sp)
    6d74:	afbe0010 	sw	s8,16(sp)
    6d78:	03a0f021 	move	s8,sp
    6d7c:	00801021 	move	v0,a0
    6d80:	1440000a 	bnez	v0,6dac <fflush+0x40>
    6d84:	00000000 	nop
    6d88:	8f828074 	lw	v0,-32652(gp)
    6d8c:	00000000 	nop
    6d90:	00402021 	move	a0,v0
    6d94:	3c020000 	lui	v0,0x0
    6d98:	24456ccc 	addiu	a1,v0,27852
    6d9c:	0c002007 	jal	801c <_fwalk_reent>
    6da0:	00000000 	nop
    6da4:	08001b71 	j	6dc4 <fflush+0x58>
    6da8:	00000000 	nop
    6dac:	8f838070 	lw	v1,-32656(gp)
    6db0:	00000000 	nop
    6db4:	00602021 	move	a0,v1
    6db8:	00402821 	move	a1,v0
    6dbc:	0c001b33 	jal	6ccc <_fflush_r>
    6dc0:	00000000 	nop
    6dc4:	03c0e821 	move	sp,s8
    6dc8:	8fbf0014 	lw	ra,20(sp)
    6dcc:	8fbe0010 	lw	s8,16(sp)
    6dd0:	27bd0018 	addiu	sp,sp,24
    6dd4:	03e00008 	jr	ra
    6dd8:	00000000 	nop

00006ddc <std>:
    6ddc:	27bdffe8 	addiu	sp,sp,-24
    6de0:	afbf0014 	sw	ra,20(sp)
    6de4:	afbe0010 	sw	s8,16(sp)
    6de8:	03a0f021 	move	s8,sp
    6dec:	afc40018 	sw	a0,24(s8)
    6df0:	afc5001c 	sw	a1,28(s8)
    6df4:	afc60020 	sw	a2,32(s8)
    6df8:	afc70024 	sw	a3,36(s8)
    6dfc:	8fc20018 	lw	v0,24(s8)
    6e00:	00000000 	nop
    6e04:	ac400000 	sw	zero,0(v0)
    6e08:	8fc20018 	lw	v0,24(s8)
    6e0c:	00000000 	nop
    6e10:	ac400004 	sw	zero,4(v0)
    6e14:	8fc20018 	lw	v0,24(s8)
    6e18:	00000000 	nop
    6e1c:	ac400008 	sw	zero,8(v0)
    6e20:	8fc2001c 	lw	v0,28(s8)
    6e24:	00000000 	nop
    6e28:	00021c00 	sll	v1,v0,0x10
    6e2c:	00031c03 	sra	v1,v1,0x10
    6e30:	8fc20018 	lw	v0,24(s8)
    6e34:	00000000 	nop
    6e38:	a443000c 	sh	v1,12(v0)
    6e3c:	8fc20018 	lw	v0,24(s8)
    6e40:	00000000 	nop
    6e44:	ac400064 	sw	zero,100(v0)
    6e48:	8fc20020 	lw	v0,32(s8)
    6e4c:	00000000 	nop
    6e50:	00021c00 	sll	v1,v0,0x10
    6e54:	00031c03 	sra	v1,v1,0x10
    6e58:	8fc20018 	lw	v0,24(s8)
    6e5c:	00000000 	nop
    6e60:	a443000e 	sh	v1,14(v0)
    6e64:	8fc20018 	lw	v0,24(s8)
    6e68:	00000000 	nop
    6e6c:	ac400010 	sw	zero,16(v0)
    6e70:	8fc20018 	lw	v0,24(s8)
    6e74:	00000000 	nop
    6e78:	ac400014 	sw	zero,20(v0)
    6e7c:	8fc20018 	lw	v0,24(s8)
    6e80:	00000000 	nop
    6e84:	ac400018 	sw	zero,24(v0)
    6e88:	8fc20018 	lw	v0,24(s8)
    6e8c:	00000000 	nop
    6e90:	2442005c 	addiu	v0,v0,92
    6e94:	00402021 	move	a0,v0
    6e98:	00002821 	move	a1,zero
    6e9c:	24060008 	li	a2,8
    6ea0:	0c002815 	jal	a054 <memset>
    6ea4:	00000000 	nop
    6ea8:	8fc20018 	lw	v0,24(s8)
    6eac:	8fc30018 	lw	v1,24(s8)
    6eb0:	00000000 	nop
    6eb4:	ac43001c 	sw	v1,28(v0)
    6eb8:	8fc20018 	lw	v0,24(s8)
    6ebc:	3c030001 	lui	v1,0x1
    6ec0:	2463ca1c 	addiu	v1,v1,-13796
    6ec4:	ac430020 	sw	v1,32(v0)
    6ec8:	8fc20018 	lw	v0,24(s8)
    6ecc:	3c030001 	lui	v1,0x1
    6ed0:	2463cb08 	addiu	v1,v1,-13560
    6ed4:	ac430024 	sw	v1,36(v0)
    6ed8:	8fc20018 	lw	v0,24(s8)
    6edc:	3c030001 	lui	v1,0x1
    6ee0:	2463cbcc 	addiu	v1,v1,-13364
    6ee4:	ac430028 	sw	v1,40(v0)
    6ee8:	8fc20018 	lw	v0,24(s8)
    6eec:	3c030001 	lui	v1,0x1
    6ef0:	2463cc88 	addiu	v1,v1,-13176
    6ef4:	ac43002c 	sw	v1,44(v0)
    6ef8:	03c0e821 	move	sp,s8
    6efc:	8fbf0014 	lw	ra,20(sp)
    6f00:	8fbe0010 	lw	s8,16(sp)
    6f04:	27bd0018 	addiu	sp,sp,24
    6f08:	03e00008 	jr	ra
    6f0c:	00000000 	nop

00006f10 <__sfmoreglue>:
    6f10:	27bdffd8 	addiu	sp,sp,-40
    6f14:	afbf0024 	sw	ra,36(sp)
    6f18:	afbe0020 	sw	s8,32(sp)
    6f1c:	afb0001c 	sw	s0,28(sp)
    6f20:	03a0f021 	move	s8,sp
    6f24:	afc40028 	sw	a0,40(s8)
    6f28:	00a08021 	move	s0,a1
    6f2c:	02002021 	move	a0,s0
    6f30:	00801821 	move	v1,a0
    6f34:	00031080 	sll	v0,v1,0x2
    6f38:	00401821 	move	v1,v0
    6f3c:	00031080 	sll	v0,v1,0x2
    6f40:	00431023 	subu	v0,v0,v1
    6f44:	00441021 	addu	v0,v0,a0
    6f48:	000210c0 	sll	v0,v0,0x3
    6f4c:	2442000c 	addiu	v0,v0,12
    6f50:	8fc40028 	lw	a0,40(s8)
    6f54:	00402821 	move	a1,v0
    6f58:	0c002290 	jal	8a40 <_malloc_r>
    6f5c:	00000000 	nop
    6f60:	afc20010 	sw	v0,16(s8)
    6f64:	8fc20010 	lw	v0,16(s8)
    6f68:	00000000 	nop
    6f6c:	14400004 	bnez	v0,6f80 <__sfmoreglue+0x70>
    6f70:	00000000 	nop
    6f74:	00001021 	move	v0,zero
    6f78:	08001bfc 	j	6ff0 <__sfmoreglue+0xe0>
    6f7c:	00000000 	nop
    6f80:	8fc20010 	lw	v0,16(s8)
    6f84:	00000000 	nop
    6f88:	2442000c 	addiu	v0,v0,12
    6f8c:	afc20014 	sw	v0,20(s8)
    6f90:	8fc20010 	lw	v0,16(s8)
    6f94:	00000000 	nop
    6f98:	ac400000 	sw	zero,0(v0)
    6f9c:	8fc20010 	lw	v0,16(s8)
    6fa0:	00000000 	nop
    6fa4:	ac500004 	sw	s0,4(v0)
    6fa8:	8fc20010 	lw	v0,16(s8)
    6fac:	8fc30014 	lw	v1,20(s8)
    6fb0:	00000000 	nop
    6fb4:	ac430008 	sw	v1,8(v0)
    6fb8:	02002021 	move	a0,s0
    6fbc:	00801821 	move	v1,a0
    6fc0:	00031080 	sll	v0,v1,0x2
    6fc4:	00401821 	move	v1,v0
    6fc8:	00031080 	sll	v0,v1,0x2
    6fcc:	00431023 	subu	v0,v0,v1
    6fd0:	00441021 	addu	v0,v0,a0
    6fd4:	000210c0 	sll	v0,v0,0x3
    6fd8:	8fc40014 	lw	a0,20(s8)
    6fdc:	00002821 	move	a1,zero
    6fe0:	00403021 	move	a2,v0
    6fe4:	0c002815 	jal	a054 <memset>
    6fe8:	00000000 	nop
    6fec:	8fc20010 	lw	v0,16(s8)
    6ff0:	03c0e821 	move	sp,s8
    6ff4:	8fbf0024 	lw	ra,36(sp)
    6ff8:	8fbe0020 	lw	s8,32(sp)
    6ffc:	8fb0001c 	lw	s0,28(sp)
    7000:	27bd0028 	addiu	sp,sp,40
    7004:	03e00008 	jr	ra
    7008:	00000000 	nop

0000700c <__sfp>:
    700c:	27bdffd8 	addiu	sp,sp,-40
    7010:	afbf0024 	sw	ra,36(sp)
    7014:	afbe0020 	sw	s8,32(sp)
    7018:	03a0f021 	move	s8,sp
    701c:	afc40028 	sw	a0,40(s8)
    7020:	0c001cff 	jal	73fc <__sfp_lock_acquire>
    7024:	00000000 	nop
    7028:	8f828074 	lw	v0,-32652(gp)
    702c:	00000000 	nop
    7030:	8c420038 	lw	v0,56(v0)
    7034:	00000000 	nop
    7038:	14400006 	bnez	v0,7054 <__sfp+0x48>
    703c:	00000000 	nop
    7040:	8f828074 	lw	v0,-32652(gp)
    7044:	00000000 	nop
    7048:	00402021 	move	a0,v0
    704c:	0c001cb5 	jal	72d4 <__sinit>
    7050:	00000000 	nop
    7054:	8f828074 	lw	v0,-32652(gp)
    7058:	00000000 	nop
    705c:	244202e0 	addiu	v0,v0,736
    7060:	afc20018 	sw	v0,24(s8)
    7064:	8fc20018 	lw	v0,24(s8)
    7068:	00000000 	nop
    706c:	8c420008 	lw	v0,8(v0)
    7070:	00000000 	nop
    7074:	afc20010 	sw	v0,16(s8)
    7078:	8fc20018 	lw	v0,24(s8)
    707c:	00000000 	nop
    7080:	8c420004 	lw	v0,4(v0)
    7084:	00000000 	nop
    7088:	afc20014 	sw	v0,20(s8)
    708c:	08001c64 	j	7190 <__sfp+0x184>
    7090:	00000000 	nop
    7094:	8fc20010 	lw	v0,16(s8)
    7098:	00000000 	nop
    709c:	8442000c 	lh	v0,12(v0)
    70a0:	00000000 	nop
    70a4:	14400036 	bnez	v0,7180 <__sfp+0x174>
    70a8:	00000000 	nop
    70ac:	00000000 	nop
    70b0:	8fc20010 	lw	v0,16(s8)
    70b4:	2403ffff 	li	v1,-1
    70b8:	a443000e 	sh	v1,14(v0)
    70bc:	8fc20010 	lw	v0,16(s8)
    70c0:	24030001 	li	v1,1
    70c4:	a443000c 	sh	v1,12(v0)
    70c8:	8fc20010 	lw	v0,16(s8)
    70cc:	00000000 	nop
    70d0:	ac400064 	sw	zero,100(v0)
    70d4:	0c001d07 	jal	741c <__sfp_lock_release>
    70d8:	00000000 	nop
    70dc:	8fc20010 	lw	v0,16(s8)
    70e0:	00000000 	nop
    70e4:	ac400000 	sw	zero,0(v0)
    70e8:	8fc20010 	lw	v0,16(s8)
    70ec:	00000000 	nop
    70f0:	ac400008 	sw	zero,8(v0)
    70f4:	8fc20010 	lw	v0,16(s8)
    70f8:	00000000 	nop
    70fc:	ac400004 	sw	zero,4(v0)
    7100:	8fc20010 	lw	v0,16(s8)
    7104:	00000000 	nop
    7108:	ac400010 	sw	zero,16(v0)
    710c:	8fc20010 	lw	v0,16(s8)
    7110:	00000000 	nop
    7114:	ac400014 	sw	zero,20(v0)
    7118:	8fc20010 	lw	v0,16(s8)
    711c:	00000000 	nop
    7120:	ac400018 	sw	zero,24(v0)
    7124:	8fc20010 	lw	v0,16(s8)
    7128:	00000000 	nop
    712c:	2442005c 	addiu	v0,v0,92
    7130:	00402021 	move	a0,v0
    7134:	00002821 	move	a1,zero
    7138:	24060008 	li	a2,8
    713c:	0c002815 	jal	a054 <memset>
    7140:	00000000 	nop
    7144:	8fc20010 	lw	v0,16(s8)
    7148:	00000000 	nop
    714c:	ac400030 	sw	zero,48(v0)
    7150:	8fc20010 	lw	v0,16(s8)
    7154:	00000000 	nop
    7158:	ac400034 	sw	zero,52(v0)
    715c:	8fc20010 	lw	v0,16(s8)
    7160:	00000000 	nop
    7164:	ac400044 	sw	zero,68(v0)
    7168:	8fc20010 	lw	v0,16(s8)
    716c:	00000000 	nop
    7170:	ac400048 	sw	zero,72(v0)
    7174:	8fc20010 	lw	v0,16(s8)
    7178:	08001c90 	j	7240 <__sfp+0x234>
    717c:	00000000 	nop
    7180:	8fc20010 	lw	v0,16(s8)
    7184:	00000000 	nop
    7188:	24420068 	addiu	v0,v0,104
    718c:	afc20010 	sw	v0,16(s8)
    7190:	8fc20014 	lw	v0,20(s8)
    7194:	00000000 	nop
    7198:	2442ffff 	addiu	v0,v0,-1
    719c:	afc20014 	sw	v0,20(s8)
    71a0:	8fc20014 	lw	v0,20(s8)
    71a4:	00000000 	nop
    71a8:	0441ffba 	bgez	v0,7094 <__sfp+0x88>
    71ac:	00000000 	nop
    71b0:	8fc20018 	lw	v0,24(s8)
    71b4:	00000000 	nop
    71b8:	8c420000 	lw	v0,0(v0)
    71bc:	00000000 	nop
    71c0:	14400018 	bnez	v0,7224 <__sfp+0x218>
    71c4:	00000000 	nop
    71c8:	8fc40028 	lw	a0,40(s8)
    71cc:	24050004 	li	a1,4
    71d0:	0c001bc4 	jal	6f10 <__sfmoreglue>
    71d4:	00000000 	nop
    71d8:	00401821 	move	v1,v0
    71dc:	8fc20018 	lw	v0,24(s8)
    71e0:	00000000 	nop
    71e4:	ac430000 	sw	v1,0(v0)
    71e8:	8fc20018 	lw	v0,24(s8)
    71ec:	00000000 	nop
    71f0:	8c420000 	lw	v0,0(v0)
    71f4:	00000000 	nop
    71f8:	1440000a 	bnez	v0,7224 <__sfp+0x218>
    71fc:	00000000 	nop
    7200:	00000000 	nop
    7204:	0c001d07 	jal	741c <__sfp_lock_release>
    7208:	00000000 	nop
    720c:	8fc20028 	lw	v0,40(s8)
    7210:	2403000c 	li	v1,12
    7214:	ac430000 	sw	v1,0(v0)
    7218:	00001021 	move	v0,zero
    721c:	08001c90 	j	7240 <__sfp+0x234>
    7220:	00000000 	nop
    7224:	8fc20018 	lw	v0,24(s8)
    7228:	00000000 	nop
    722c:	8c420000 	lw	v0,0(v0)
    7230:	00000000 	nop
    7234:	afc20018 	sw	v0,24(s8)
    7238:	08001c19 	j	7064 <__sfp+0x58>
    723c:	00000000 	nop
    7240:	03c0e821 	move	sp,s8
    7244:	8fbf0024 	lw	ra,36(sp)
    7248:	8fbe0020 	lw	s8,32(sp)
    724c:	27bd0028 	addiu	sp,sp,40
    7250:	03e00008 	jr	ra
    7254:	00000000 	nop

00007258 <_cleanup_r>:
    7258:	27bdffe8 	addiu	sp,sp,-24
    725c:	afbf0014 	sw	ra,20(sp)
    7260:	afbe0010 	sw	s8,16(sp)
    7264:	03a0f021 	move	s8,sp
    7268:	afc40018 	sw	a0,24(s8)
    726c:	8fc40018 	lw	a0,24(s8)
    7270:	3c020001 	lui	v0,0x1
    7274:	2445f67c 	addiu	a1,v0,-2436
    7278:	0c001fca 	jal	7f28 <_fwalk>
    727c:	00000000 	nop
    7280:	03c0e821 	move	sp,s8
    7284:	8fbf0014 	lw	ra,20(sp)
    7288:	8fbe0010 	lw	s8,16(sp)
    728c:	27bd0018 	addiu	sp,sp,24
    7290:	03e00008 	jr	ra
    7294:	00000000 	nop

00007298 <_cleanup>:
    7298:	27bdffe8 	addiu	sp,sp,-24
    729c:	afbf0014 	sw	ra,20(sp)
    72a0:	afbe0010 	sw	s8,16(sp)
    72a4:	03a0f021 	move	s8,sp
    72a8:	8f828074 	lw	v0,-32652(gp)
    72ac:	00000000 	nop
    72b0:	00402021 	move	a0,v0
    72b4:	0c001c96 	jal	7258 <_cleanup_r>
    72b8:	00000000 	nop
    72bc:	03c0e821 	move	sp,s8
    72c0:	8fbf0014 	lw	ra,20(sp)
    72c4:	8fbe0010 	lw	s8,16(sp)
    72c8:	27bd0018 	addiu	sp,sp,24
    72cc:	03e00008 	jr	ra
    72d0:	00000000 	nop

000072d4 <__sinit>:
    72d4:	27bdffe8 	addiu	sp,sp,-24
    72d8:	afbf0014 	sw	ra,20(sp)
    72dc:	afbe0010 	sw	s8,16(sp)
    72e0:	03a0f021 	move	s8,sp
    72e4:	afc40018 	sw	a0,24(s8)
    72e8:	0c001d0f 	jal	743c <__sinit_lock_acquire>
    72ec:	00000000 	nop
    72f0:	8fc20018 	lw	v0,24(s8)
    72f4:	00000000 	nop
    72f8:	8c420038 	lw	v0,56(v0)
    72fc:	00000000 	nop
    7300:	10400005 	beqz	v0,7318 <__sinit+0x44>
    7304:	00000000 	nop
    7308:	0c001d17 	jal	745c <__sinit_lock_release>
    730c:	00000000 	nop
    7310:	08001cf9 	j	73e4 <__sinit+0x110>
    7314:	00000000 	nop
    7318:	8fc20018 	lw	v0,24(s8)
    731c:	3c030000 	lui	v1,0x0
    7320:	24637258 	addiu	v1,v1,29272
    7324:	ac43003c 	sw	v1,60(v0)
    7328:	8fc20018 	lw	v0,24(s8)
    732c:	24030001 	li	v1,1
    7330:	ac430038 	sw	v1,56(v0)
    7334:	8fc20018 	lw	v0,24(s8)
    7338:	00000000 	nop
    733c:	ac4002e0 	sw	zero,736(v0)
    7340:	8fc20018 	lw	v0,24(s8)
    7344:	24030003 	li	v1,3
    7348:	ac4302e4 	sw	v1,740(v0)
    734c:	8fc20018 	lw	v0,24(s8)
    7350:	00000000 	nop
    7354:	244302ec 	addiu	v1,v0,748
    7358:	8fc20018 	lw	v0,24(s8)
    735c:	00000000 	nop
    7360:	ac4302e8 	sw	v1,744(v0)
    7364:	8fc20018 	lw	v0,24(s8)
    7368:	00000000 	nop
    736c:	8c420004 	lw	v0,4(v0)
    7370:	00000000 	nop
    7374:	00402021 	move	a0,v0
    7378:	24050004 	li	a1,4
    737c:	00003021 	move	a2,zero
    7380:	8fc70018 	lw	a3,24(s8)
    7384:	0c001b77 	jal	6ddc <std>
    7388:	00000000 	nop
    738c:	8fc20018 	lw	v0,24(s8)
    7390:	00000000 	nop
    7394:	8c420008 	lw	v0,8(v0)
    7398:	00000000 	nop
    739c:	00402021 	move	a0,v0
    73a0:	24050009 	li	a1,9
    73a4:	24060001 	li	a2,1
    73a8:	8fc70018 	lw	a3,24(s8)
    73ac:	0c001b77 	jal	6ddc <std>
    73b0:	00000000 	nop
    73b4:	8fc20018 	lw	v0,24(s8)
    73b8:	00000000 	nop
    73bc:	8c42000c 	lw	v0,12(v0)
    73c0:	00000000 	nop
    73c4:	00402021 	move	a0,v0
    73c8:	24050012 	li	a1,18
    73cc:	24060002 	li	a2,2
    73d0:	8fc70018 	lw	a3,24(s8)
    73d4:	0c001b77 	jal	6ddc <std>
    73d8:	00000000 	nop
    73dc:	0c001d17 	jal	745c <__sinit_lock_release>
    73e0:	00000000 	nop
    73e4:	03c0e821 	move	sp,s8
    73e8:	8fbf0014 	lw	ra,20(sp)
    73ec:	8fbe0010 	lw	s8,16(sp)
    73f0:	27bd0018 	addiu	sp,sp,24
    73f4:	03e00008 	jr	ra
    73f8:	00000000 	nop

000073fc <__sfp_lock_acquire>:
    73fc:	27bdfff8 	addiu	sp,sp,-8
    7400:	afbe0004 	sw	s8,4(sp)
    7404:	03a0f021 	move	s8,sp
    7408:	03c0e821 	move	sp,s8
    740c:	8fbe0004 	lw	s8,4(sp)
    7410:	27bd0008 	addiu	sp,sp,8
    7414:	03e00008 	jr	ra
    7418:	00000000 	nop

0000741c <__sfp_lock_release>:
    741c:	27bdfff8 	addiu	sp,sp,-8
    7420:	afbe0004 	sw	s8,4(sp)
    7424:	03a0f021 	move	s8,sp
    7428:	03c0e821 	move	sp,s8
    742c:	8fbe0004 	lw	s8,4(sp)
    7430:	27bd0008 	addiu	sp,sp,8
    7434:	03e00008 	jr	ra
    7438:	00000000 	nop

0000743c <__sinit_lock_acquire>:
    743c:	27bdfff8 	addiu	sp,sp,-8
    7440:	afbe0004 	sw	s8,4(sp)
    7444:	03a0f021 	move	s8,sp
    7448:	03c0e821 	move	sp,s8
    744c:	8fbe0004 	lw	s8,4(sp)
    7450:	27bd0008 	addiu	sp,sp,8
    7454:	03e00008 	jr	ra
    7458:	00000000 	nop

0000745c <__sinit_lock_release>:
    745c:	27bdfff8 	addiu	sp,sp,-8
    7460:	afbe0004 	sw	s8,4(sp)
    7464:	03a0f021 	move	s8,sp
    7468:	03c0e821 	move	sp,s8
    746c:	8fbe0004 	lw	s8,4(sp)
    7470:	27bd0008 	addiu	sp,sp,8
    7474:	03e00008 	jr	ra
    7478:	00000000 	nop

0000747c <__fp_lock>:
    747c:	27bdfff8 	addiu	sp,sp,-8
    7480:	afbe0004 	sw	s8,4(sp)
    7484:	03a0f021 	move	s8,sp
    7488:	afc40008 	sw	a0,8(s8)
    748c:	00001021 	move	v0,zero
    7490:	03c0e821 	move	sp,s8
    7494:	8fbe0004 	lw	s8,4(sp)
    7498:	27bd0008 	addiu	sp,sp,8
    749c:	03e00008 	jr	ra
    74a0:	00000000 	nop

000074a4 <__fp_unlock>:
    74a4:	27bdfff8 	addiu	sp,sp,-8
    74a8:	afbe0004 	sw	s8,4(sp)
    74ac:	03a0f021 	move	s8,sp
    74b0:	afc40008 	sw	a0,8(s8)
    74b4:	00001021 	move	v0,zero
    74b8:	03c0e821 	move	sp,s8
    74bc:	8fbe0004 	lw	s8,4(sp)
    74c0:	27bd0008 	addiu	sp,sp,8
    74c4:	03e00008 	jr	ra
    74c8:	00000000 	nop

000074cc <__fp_lock_all>:
    74cc:	27bdffe8 	addiu	sp,sp,-24
    74d0:	afbf0014 	sw	ra,20(sp)
    74d4:	afbe0010 	sw	s8,16(sp)
    74d8:	03a0f021 	move	s8,sp
    74dc:	0c001cff 	jal	73fc <__sfp_lock_acquire>
    74e0:	00000000 	nop
    74e4:	8f828070 	lw	v0,-32656(gp)
    74e8:	00000000 	nop
    74ec:	00402021 	move	a0,v0
    74f0:	3c020000 	lui	v0,0x0
    74f4:	2445747c 	addiu	a1,v0,29820
    74f8:	0c001fca 	jal	7f28 <_fwalk>
    74fc:	00000000 	nop
    7500:	03c0e821 	move	sp,s8
    7504:	8fbf0014 	lw	ra,20(sp)
    7508:	8fbe0010 	lw	s8,16(sp)
    750c:	27bd0018 	addiu	sp,sp,24
    7510:	03e00008 	jr	ra
    7514:	00000000 	nop

00007518 <__fp_unlock_all>:
    7518:	27bdffe8 	addiu	sp,sp,-24
    751c:	afbf0014 	sw	ra,20(sp)
    7520:	afbe0010 	sw	s8,16(sp)
    7524:	03a0f021 	move	s8,sp
    7528:	8f828070 	lw	v0,-32656(gp)
    752c:	00000000 	nop
    7530:	00402021 	move	a0,v0
    7534:	3c020000 	lui	v0,0x0
    7538:	244574a4 	addiu	a1,v0,29860
    753c:	0c001fca 	jal	7f28 <_fwalk>
    7540:	00000000 	nop
    7544:	0c001d07 	jal	741c <__sfp_lock_release>
    7548:	00000000 	nop
    754c:	03c0e821 	move	sp,s8
    7550:	8fbf0014 	lw	ra,20(sp)
    7554:	8fbe0010 	lw	s8,16(sp)
    7558:	27bd0018 	addiu	sp,sp,24
    755c:	03e00008 	jr	ra
    7560:	00000000 	nop

00007564 <_free_r>:
    7564:	27bdffc0 	addiu	sp,sp,-64
    7568:	afbf003c 	sw	ra,60(sp)
    756c:	afbe0038 	sw	s8,56(sp)
    7570:	03a0f021 	move	s8,sp
    7574:	afc40040 	sw	a0,64(s8)
    7578:	afc50044 	sw	a1,68(s8)
    757c:	8fc20044 	lw	v0,68(s8)
    7580:	00000000 	nop
    7584:	14400003 	bnez	v0,7594 <_free_r+0x30>
    7588:	00000000 	nop
    758c:	08001f2f 	j	7cbc <_free_r+0x758>
    7590:	00000000 	nop
    7594:	8fc40040 	lw	a0,64(s8)
    7598:	0c0028ab 	jal	a2ac <__malloc_lock>
    759c:	00000000 	nop
    75a0:	8fc20044 	lw	v0,68(s8)
    75a4:	00000000 	nop
    75a8:	2442fff8 	addiu	v0,v0,-8
    75ac:	afc20010 	sw	v0,16(s8)
    75b0:	8fc20010 	lw	v0,16(s8)
    75b4:	00000000 	nop
    75b8:	8c420004 	lw	v0,4(v0)
    75bc:	00000000 	nop
    75c0:	afc20024 	sw	v0,36(s8)
    75c4:	8fc30024 	lw	v1,36(s8)
    75c8:	2402fffe 	li	v0,-2
    75cc:	00621024 	and	v0,v1,v0
    75d0:	afc20014 	sw	v0,20(s8)
    75d4:	8fc30010 	lw	v1,16(s8)
    75d8:	8fc20014 	lw	v0,20(s8)
    75dc:	00000000 	nop
    75e0:	00621021 	addu	v0,v1,v0
    75e4:	afc20028 	sw	v0,40(s8)
    75e8:	8fc20028 	lw	v0,40(s8)
    75ec:	00000000 	nop
    75f0:	8c430004 	lw	v1,4(v0)
    75f4:	2402fffc 	li	v0,-4
    75f8:	00621024 	and	v0,v1,v0
    75fc:	afc2002c 	sw	v0,44(s8)
    7600:	3c020001 	lui	v0,0x1
    7604:	244265d8 	addiu	v0,v0,26072
    7608:	8c430008 	lw	v1,8(v0)
    760c:	8fc20028 	lw	v0,40(s8)
    7610:	00000000 	nop
    7614:	14620049 	bne	v1,v0,773c <_free_r+0x1d8>
    7618:	00000000 	nop
    761c:	8fc30014 	lw	v1,20(s8)
    7620:	8fc2002c 	lw	v0,44(s8)
    7624:	00000000 	nop
    7628:	00621021 	addu	v0,v1,v0
    762c:	afc20014 	sw	v0,20(s8)
    7630:	8fc20024 	lw	v0,36(s8)
    7634:	00000000 	nop
    7638:	30420001 	andi	v0,v0,0x1
    763c:	14400024 	bnez	v0,76d0 <_free_r+0x16c>
    7640:	00000000 	nop
    7644:	8fc20010 	lw	v0,16(s8)
    7648:	00000000 	nop
    764c:	8c420000 	lw	v0,0(v0)
    7650:	00000000 	nop
    7654:	afc20030 	sw	v0,48(s8)
    7658:	8fc20030 	lw	v0,48(s8)
    765c:	00000000 	nop
    7660:	00021023 	negu	v0,v0
    7664:	8fc30010 	lw	v1,16(s8)
    7668:	00000000 	nop
    766c:	00621021 	addu	v0,v1,v0
    7670:	afc20010 	sw	v0,16(s8)
    7674:	8fc30014 	lw	v1,20(s8)
    7678:	8fc20030 	lw	v0,48(s8)
    767c:	00000000 	nop
    7680:	00621021 	addu	v0,v1,v0
    7684:	afc20014 	sw	v0,20(s8)
    7688:	8fc20010 	lw	v0,16(s8)
    768c:	00000000 	nop
    7690:	8c42000c 	lw	v0,12(v0)
    7694:	00000000 	nop
    7698:	afc20018 	sw	v0,24(s8)
    769c:	8fc20010 	lw	v0,16(s8)
    76a0:	00000000 	nop
    76a4:	8c420008 	lw	v0,8(v0)
    76a8:	00000000 	nop
    76ac:	afc2001c 	sw	v0,28(s8)
    76b0:	8fc2001c 	lw	v0,28(s8)
    76b4:	8fc30018 	lw	v1,24(s8)
    76b8:	00000000 	nop
    76bc:	ac43000c 	sw	v1,12(v0)
    76c0:	8fc20018 	lw	v0,24(s8)
    76c4:	8fc3001c 	lw	v1,28(s8)
    76c8:	00000000 	nop
    76cc:	ac430008 	sw	v1,8(v0)
    76d0:	8fc20014 	lw	v0,20(s8)
    76d4:	00000000 	nop
    76d8:	34430001 	ori	v1,v0,0x1
    76dc:	8fc20010 	lw	v0,16(s8)
    76e0:	00000000 	nop
    76e4:	ac430004 	sw	v1,4(v0)
    76e8:	3c020001 	lui	v0,0x1
    76ec:	244265d8 	addiu	v0,v0,26072
    76f0:	8fc30010 	lw	v1,16(s8)
    76f4:	00000000 	nop
    76f8:	ac430008 	sw	v1,8(v0)
    76fc:	8f82807c 	lw	v0,-32644(gp)
    7700:	8fc30014 	lw	v1,20(s8)
    7704:	00000000 	nop
    7708:	0062102b 	sltu	v0,v1,v0
    770c:	14400006 	bnez	v0,7728 <_free_r+0x1c4>
    7710:	00000000 	nop
    7714:	8f8280c4 	lw	v0,-32572(gp)
    7718:	8fc40040 	lw	a0,64(s8)
    771c:	00402821 	move	a1,v0
    7720:	0c001f35 	jal	7cd4 <_malloc_trim_r>
    7724:	00000000 	nop
    7728:	8fc40040 	lw	a0,64(s8)
    772c:	0c0028b4 	jal	a2d0 <__malloc_unlock>
    7730:	00000000 	nop
    7734:	08001f2f 	j	7cbc <_free_r+0x758>
    7738:	00000000 	nop
    773c:	8fc20028 	lw	v0,40(s8)
    7740:	8fc3002c 	lw	v1,44(s8)
    7744:	00000000 	nop
    7748:	ac430004 	sw	v1,4(v0)
    774c:	afc00020 	sw	zero,32(s8)
    7750:	8fc20024 	lw	v0,36(s8)
    7754:	00000000 	nop
    7758:	30420001 	andi	v0,v0,0x1
    775c:	1440002f 	bnez	v0,781c <_free_r+0x2b8>
    7760:	00000000 	nop
    7764:	8fc20010 	lw	v0,16(s8)
    7768:	00000000 	nop
    776c:	8c420000 	lw	v0,0(v0)
    7770:	00000000 	nop
    7774:	afc20030 	sw	v0,48(s8)
    7778:	8fc20030 	lw	v0,48(s8)
    777c:	00000000 	nop
    7780:	00021023 	negu	v0,v0
    7784:	8fc30010 	lw	v1,16(s8)
    7788:	00000000 	nop
    778c:	00621021 	addu	v0,v1,v0
    7790:	afc20010 	sw	v0,16(s8)
    7794:	8fc30014 	lw	v1,20(s8)
    7798:	8fc20030 	lw	v0,48(s8)
    779c:	00000000 	nop
    77a0:	00621021 	addu	v0,v1,v0
    77a4:	afc20014 	sw	v0,20(s8)
    77a8:	8fc20010 	lw	v0,16(s8)
    77ac:	00000000 	nop
    77b0:	8c430008 	lw	v1,8(v0)
    77b4:	3c020001 	lui	v0,0x1
    77b8:	244265e0 	addiu	v0,v0,26080
    77bc:	14620005 	bne	v1,v0,77d4 <_free_r+0x270>
    77c0:	00000000 	nop
    77c4:	24020001 	li	v0,1
    77c8:	afc20020 	sw	v0,32(s8)
    77cc:	08001e07 	j	781c <_free_r+0x2b8>
    77d0:	00000000 	nop
    77d4:	8fc20010 	lw	v0,16(s8)
    77d8:	00000000 	nop
    77dc:	8c42000c 	lw	v0,12(v0)
    77e0:	00000000 	nop
    77e4:	afc20018 	sw	v0,24(s8)
    77e8:	8fc20010 	lw	v0,16(s8)
    77ec:	00000000 	nop
    77f0:	8c420008 	lw	v0,8(v0)
    77f4:	00000000 	nop
    77f8:	afc2001c 	sw	v0,28(s8)
    77fc:	8fc2001c 	lw	v0,28(s8)
    7800:	8fc30018 	lw	v1,24(s8)
